(lp0
S'hordes'
p1
aS'dynasty'
p2
aS'mansion'
p3
aS'liar'
p4
aS'Scarecrow'
p5
aS'neighbours'
p6
aS'Western'
p7
aS'lord'
p8
aS'regrets'
p9
aS'Mystery'
p10
aS'League'
p11
aS'compassion'
p12
aS'Henry'
p13
aS'school'
p14
aS'investigator'
p15
aS'Joseph Melito'
p16
aS'James McTeigue'
p17
aS'barracks'
p18
aS'Paul'
p19
aS'Lawrence A. Bonney'
p20
aS'Carol Reed'
p21
aS'bicycle'
p22
aS'ingenue'
p23
aS'Christie'
p24
aS'chef'
p25
aS'street'
p26
aS'machines'
p27
aS'decadence'
p28
aS'hide'
p29
aS'Andrew Stanton'
p30
aS'ruthless'
p31
aS'Buster Keaton'
p32
aS'while'
p33
aS'Sterling Hayden'
p34
aS'John G. Avildsen'
p35
aS'Gus Van Sant'
p36
aS'Barbara Stanwyck'
p37
aS'Anne Bancroft'
p38
aS'Phellipe Haagensen'
p39
aS'Don Rickles'
p40
aS'Jackie Coogan'
p41
aS'Frank Finlay'
p42
aS'Wil Wheaton'
p43
aS'men'
p44
aS'Disturbed'
p45
aS'Mordor'
p46
aS'hers'
p47
aS'path'
p48
aS'Ingrid Bergman'
p49
aS'generals'
p50
aS'daughter'
p51
aS'leaves'
p52
aS'James Caan'
p53
aS'anchor'
p54
aS'Paul Freeman'
p55
aS'mentor'
p56
aS'bunker'
p57
aS'Orleans'
p58
aS'acrophobia'
p59
aS'Harvey'
p60
aS'patience'
p61
aS'Behind'
p62
aS'Basin'
p63
aS'Epic'
p64
aS"Donald O'Connor"
p65
aS'plot'
p66
aS'criminals'
p67
aS'Star'
p68
aS'army'
p69
aS'Madeleine Stowe'
p70
aS'David Lynch'
p71
aS'preview'
p72
aS'Anil Kapoor'
p73
aS'brings'
p74
aS'Quentin Tarantino'
p75
aS'tying'
p76
aS'V'
p77
aS'Johnny Depp'
p78
aS'Eva Marie Saint'
p79
aS'society.'
p80
aS'room'
p81
aS'rights'
p82
aS'work'
p83
aS'Emma Stone'
p84
aS'movies'
p85
aS'entertainer'
p86
aS'Edna Purviance'
p87
aS'example'
p88
aS'Gene Hackman'
p89
aS'misfortunes'
p90
aS'Wizard'
p91
aS'Jerry'
p92
aS'dragons'
p93
aS'Billy Wilder'
p94
aS'savant'
p95
aS'Lord'
p96
aS'swordplay'
p97
aS'Junge'
p98
aS'aging'
p99
aS'end'
p100
aS'LA'
p101
aS'travel'
p102
aS'trysts'
p103
aS'revisit'
p104
aS'Cho..'
p105
aS'rookie'
p106
aS'scaring'
p107
aS'A'
p108
aS'Logan Lerman'
p109
aS'Voldemort'
p110
aS'Will'
p111
aS'Yorker'
p112
aS'law'
p113
aS'fleet'
p114
aS'attempt'
p115
aS'Civil'
p116
aS'wins'
p117
aS'revolt'
p118
aS'Yoda'
p119
aS'Harvey Keitel'
p120
aS'rogue'
p121
aS'waitress'
p122
aS'maids'
p123
aS'James Stewart'
p124
aS'order'
p125
aS'office'
p126
aS'Joseph L. Mankiewicz'
p127
aS'Liam Neeson'
p128
aS'bombing'
p129
aS'Louise Fletcher'
p130
aS'His'
p131
aS'harmonica'
p132
aS'exhibits'
p133
aS'crew'
p134
aS'plantation'
p135
aS'production'
p136
aS'Patton Oswalt'
p137
aS'Kurt Russell'
p138
aS'Adam Elliot'
p139
aS'cop.'
p140
aS'band'
p141
aS'therapy'
p142
aS'effects'
p143
aS'Natalie Portman'
p144
aS'bank'
p145
aS'Edward Asner'
p146
aS'shadowy'
p147
aS'slavery'
p148
aS'bunny'
p149
aS'feeds'
p150
aS'loyalties'
p151
aS'Robert Ryan'
p152
aS'bond'
p153
aS'Kim Hunter'
p154
aS'Edward Fox'
p155
aS'series'
p156
aS'crimes'
p157
aS'Ingmar Bergman'
p158
aS'George Lucas'
p159
aS'Baggins'
p160
aS'Darsheel Safary'
p161
aS'dispiriting'
p162
aS'ghosts'
p163
aS'Lloyd Bridges'
p164
aS'ring'
p165
aS'network'
p166
aS'Holy'
p167
aS'dinosaur'
p168
aS'god'
p169
aS'tales'
p170
aS'William'
p171
aS'fellowship'
p172
aS'Lauren Bacall'
p173
aS'surprise'
p174
aS'Derek Jacobi'
p175
aS'Cuban'
p176
aS'projectionist'
p177
aS'University'
p178
aS'revenge'
p179
aS'Henry Koster'
p180
aS'struggle'
p181
aS'Ewen Bremner'
p182
aS'mistress'
p183
aS'abdicates'
p184
aS'Bibi Andersson'
p185
aS'days'
p186
aS'undercover'
p187
aS'musicians'
p188
aS'moving'
p189
aS'Antarctic'
p190
aS'Yoshiko Shinohara'
p191
aS'Depression'
p192
aS'Adolf'
p193
aS'Gennaro'
p194
aS'Frank Morgan'
p195
aS'Samuel L. Jackson'
p196
aS'Dennis Farina'
p197
aS'Terry Jones'
p198
aS'Richard Dreyfuss'
p199
aS'Alexandre Rodrigues'
p200
aS'force'
p201
aS'Monsters'
p202
aS'toy'
p203
aS'service'
p204
aS'Michael Cimino'
p205
aS'Edward Furlong'
p206
aS'Aleksandr Kaydanovskiy'
p207
aS'master'
p208
aS'John Ford'
p209
aS'murder'
p210
aS'Keanu Reeves'
p211
aS'Joe Pantoliano'
p212
aS'Ellen Burstyn'
p213
aS'Erich von Stroheim'
p214
aS'Robert Mitchum'
p215
aS'white'
p216
aS'distance'
p217
aS'Set'
p218
aS'Elizabeth Berridge'
p219
aS'guilt'
p220
aS'knights'
p221
aS'Biography'
p222
aS'screenplay'
p223
aS'bridge'
p224
aS'sees'
p225
aS'palace'
p226
aS'Chicago'
p227
aS'runner'
p228
aS'bank/train'
p229
aS'mind'
p230
aS'rat'
p231
aS'Animation'
p232
aS'Cary Grant'
p233
aS'Holly'
p234
aS'tells'
p235
aS'Lionel Barrymore'
p236
aS'Paul Thomas Anderson'
p237
aS'Victor Fleming'
p238
aS'Michael J. Fox'
p239
aS'Frodo'
p240
aS'forces'
p241
aS'Jean Arthur'
p242
aS'Dexter Fletcher'
p243
aS'Jones'
p244
aS'Akira Terao'
p245
aS'Knight'
p246
aS'Michael Gambon'
p247
aS'Isengard'
p248
aS'Side'
p249
aS'prostitute'
p250
aS'camp'
p251
aS'nighttime'
p252
aS'Veronica Cartwright'
p253
aS'River Phoenix'
p254
aS'Union'
p255
aS'random'
p256
aS'boyhood'
p257
aS'Willem Dafoe'
p258
aS'marketeer'
p259
aS'charity'
p260
aS'Mike Nichols'
p261
aS'Javier Bardem'
p262
aS'Janeiro'
p263
aS'Wai-keung Lau'
p264
aS'explain'
p265
aS'Darren Aronofsky'
p266
aS'S.H.I.E.L.D.'
p267
aS'Fred'
p268
aS'theme'
p269
aS'population'
p270
aS'Ed Harris'
p271
aS'James Cameron'
p272
aS'Michael Bates'
p273
aS'spirit'
p274
aS'Robin Williams'
p275
aS'Agent'
p276
aS'Rio'
p277
aS'seeks'
p278
aS'rival'
p279
aS'movement'
p280
aS'secretary'
p281
aS'Piper Laurie'
p282
aS'disaster'
p283
aS'observes'
p284
aS'Louis Wolheim'
p285
aS'Belle'
p286
aS'sensitivity'
p287
aS'Peter Weir'
p288
aS'allure'
p289
aS'Saruman'
p290
aS'corrupt'
p291
aS'John'
p292
aS'gladiator'
p293
aS'Horror'
p294
aS'reporter'
p295
aS'Barry Humphries'
p296
aS'prince'
p297
aS"Gavin O'Connor"
p298
aS'score'
p299
aS'discovers'
p300
aS'encounters'
p301
aS'pirate'
p302
aS'nature'
p303
aS'Jeff Bridges'
p304
aS'Paul Newman'
p305
aS'Howard Hawks'
p306
aS'Thora Birch'
p307
aS'Reginald Gardiner'
p308
aS'Nick Moran'
p309
aS'cop'
p310
aS'accident'
p311
aS'country'
p312
aS'adventurer'
p313
aS'adventures'
p314
aS'WWII'
p315
aS'faces'
p316
aS'Dustin Hoffman'
p317
aS'con'
p318
aS'Terry Gilliam'
p319
aS'Myrna Loy'
p320
aS'cryptography'
p321
aS'Hmong'
p322
aS'Michael Madsen'
p323
aS'Atticus'
p324
aS'basis'
p325
aS'union'
p326
aS'Pulp'
p327
aS'Stephen Rea'
p328
aS'Christopher'
p329
aS'incompetent'
p330
aS'Paulette Goddard'
p331
aS'life'
p332
aS'Gary Oldman'
p333
aS'families'
p334
aS'drugs'
p335
aS'Poland'
p336
aS'worker'
p337
aS'filmmaker'
p338
aS'kids'
p339
aS'Annette Bening'
p340
aS'child'
p341
aS'Michael Clarke Duncan'
p342
aS'Roy Scheider'
p343
aS'Linda Hamilton'
p344
aS'Dev Patel'
p345
aS'murders'
p346
aS'Danny Boyle'
p347
aS'procedure'
p348
aS'Andy Lau'
p349
aS'settles'
p350
aS'Gary Trousdale'
p351
aS'Nam'
p352
aS'player'
p353
aS'things'
p354
aS'Sharon Stone'
p355
aS'complex'
p356
aS'David Lean'
p357
aS'monarch'
p358
aS'Aragorn'
p359
aS'showing'
p360
aS'Kang-ho Song'
p361
aS'meets'
p362
aS'Stanley Kubrick'
p363
aS'VI'
p364
aS'Sergio Leone'
p365
aS'Christian Bale'
p366
aS'Giuseppe Tornatore'
p367
aS'workforce'
p368
aS'evil'
p369
aS'Angeles'
p370
aS'stiffs'
p371
aS'clownfish'
p372
aS'characters'
p373
aS'Christopher Nolan'
p374
aS'J.J.'
p375
aS'Chris Pine'
p376
aS'Jackie Gleason'
p377
aS'suffering'
p378
aS'Martin Stringer'
p379
aS'savings'
p380
aS'client'
p381
aS'mother'
p382
aS'operandi'
p383
aS'Dean DeBlois'
p384
aS'Sarah'
p385
aS'John Ridgely'
p386
aS'Russell'
p387
aS'sentence'
p388
aS'gods'
p389
aS'Salieri'
p390
aS'Capone'
p391
aS'Cambodia'
p392
aS'Crime'
p393
aS'victim'
p394
aS'yes'
p395
aS'Fernando Meirelles'
p396
aS'Traudl'
p397
aS'enters'
p398
aS'photographer'
p399
aS'Vivien Leigh'
p400
aS'teenager'
p401
aS'prison'
p402
aS'Philip'
p403
aS'humanity'
p404
aS'Payman Maadi'
p405
aS'James'
p406
aS'paratrooper'
p407
aS'Paul Rudd'
p408
aS'boxer'
p409
aS'Wing'
p410
aS'dreams'
p411
aS'apart'
p412
aS'amok'
p413
aS'gift'
p414
aS'hunt'
p415
aS'officer'
p416
aS'Ark'
p417
aS'Kowalski'
p418
aS'Helge'
p419
aS'right'
p420
aS'deal'
p421
aS'people'
p422
aS'toys'
p423
aS'City...'
p424
aS'Martin Sheen'
p425
aS'escape'
p426
aS'Alisa Freyndlikh'
p427
aS'Edinburgh'
p428
aS'Dae-Su'
p429
aS'Cuba'
p430
aS'J.J. Abrams'
p431
aS'companions'
p432
aS'convict'
p433
aS'Gandalf'
p434
aS'Anthony Hopkins'
p435
aS'Adil Hussain'
p436
aS'He'
p437
aS'Braddock'
p438
aS'Joseph Cotten'
p439
aS'Odile'
p440
aS'monsters'
p441
aS'cheating'
p442
aS'Millionaire'
p443
aS'Gran'
p444
aS'peer'
p445
aS'insanity'
p446
aS'bury'
p447
aS'trophy'
p448
aS'Retired'
p449
aS'diner'
p450
aS'cowboy'
p451
aS'Jack Hawkins'
p452
aS'dollars'
p453
aS'accepts'
p454
aS'F. Murray Abraham'
p455
aS'dinner'
p456
aS'banker'
p457
aS'companion.'
p458
aS'objectives'
p459
aS'presence'
p460
aS'marshall'
p461
aS'brother-in-law'
p462
aS'bound'
p463
aS'son'
p464
aS'freshman'
p465
aS'Hye-jeong Kang'
p466
aS'dissenting'
p467
aS'Korean'
p468
aS'Sylvester Stallone'
p469
aS'deception'
p470
aS'fight'
p471
aS'Chun'
p472
aS'Kevin Bacon'
p473
aS'way'
p474
aS'war'
p475
aS'head'
p476
aS'amateur'
p477
aS'form'
p478
aS'differences'
p479
aS'barber'
p480
aS'heat'
p481
aS'dead'
p482
aS'syndicate'
p483
aS'Tom Hardy'
p484
aS'complications'
p485
aS'Jamie Foxx'
p486
aS'daddy'
p487
aS'temper'
p488
aS'Al Pacino'
p489
aS'Adenoid'
p490
aS'discovery.'
p491
aS'Stuart Rosenberg'
p492
aS'tournament'
p493
aS'suspicions'
p494
aS'Peter Lorre'
p495
aS'Claudette Colbert'
p496
aS'ship'
p497
aS'mole'
p498
aS'Francisco'
p499
aS'reality'
p500
aS'role'
p501
aS'Bette Davis'
p502
aS'Enzo Staiola'
p503
aS'brothers'
p504
aS'Roman Polanski'
p505
aS'Laurence Fishburne'
p506
aS'persistent'
p507
aS'Melbourne'
p508
aS'journey'
p509
aS'Earth'
p510
aS'persecution'
p511
aS'transfers'
p512
aS'Cary Elwes'
p513
aS'Sam Peckinpah'
p514
aS'Anthony Quinn'
p515
aS'American'
p516
aS'Second'
p517
aS'Richard Armitage'
p518
aS'classmate'
p519
aS'time'
p520
aS'Empire'
p521
aS'longshoreman'
p522
aS'Leonard Nimoy'
p523
aS'Torino'
p524
aS'leads'
p525
aS'Gotham'
p526
aS'bandits'
p527
aS'battle'
p528
aS'Indiana'
p529
aS'vet'
p530
aS'father'
p531
aS'Liv Ullmann'
p532
aS'charge'
p533
aS'veterans'
p534
aS'Philip Seymour Hoffman'
p535
aS'Joker'
p536
aS'turbulent'
p537
aS'Vladimir Barsky'
p538
aS'Elaine'
p539
aS'Mack Swain'
p540
aS'Ayano Shiraishi'
p541
aS'level'
p542
aS'turns'
p543
aS'brother'
p544
aS'travels'
p545
aS'team'
p546
aS'George'
p547
aS'Richard Attenborough'
p548
aS'blade'
p549
aS'Romance'
p550
aS'heavyweight'
p551
aS'Heath Ledger'
p552
aS'Anthony Wong Chau-Sang'
p553
aS'Harold Ramis'
p554
aS'Patrick McGoohan'
p555
aS'Wolfgang'
p556
aS'jeopardy'
p557
aS'Mary McDonnell'
p558
aS'Elizabeth Taylor'
p559
aS'Kim Novak'
p560
aS'Guy Pearce'
p561
aS'Along'
p562
aS'Gabriel Byrne'
p563
aS'unsure'
p564
aS'Marcia Gay Harden'
p565
aS'water'
p566
aS'English'
p567
aS'temple.'
p568
aS'teaches'
p569
aS'teacher'
p570
aS'box'
p571
aS'boy'
p572
aS'crumbles'
p573
aS'redemption'
p574
aS'thirty'
p575
aS'freak.'
p576
aS'trial'
p577
aS'priceless'
p578
aS'teenage'
p579
aS'love'
p580
aS'Sci-Fi'
p581
aS'humour'
p582
aS'POWs'
p583
aS'When'
p584
aS'Robert Duvall'
p585
aS'modus'
p586
aS'ailing'
p587
aS'Daveigh Chase'
p588
aS'crisis'
p589
aS'working'
p590
aS'super'
p591
aS'memory'
p592
aS'Swan'
p593
aS'duality'
p594
aS'club'
p595
aS'Mount'
p596
aS'clue'
p597
aS'John Cazale'
p598
aS'effort'
p599
aS'Rebels'
p600
aS'Family'
p601
aS'mayhem'
p602
aS'German'
p603
aS'John McTiernan'
p604
aS'Dowd'
p605
aS'heart'
p606
aS'Peggy Dow'
p607
aS'figure'
p608
aS'Federal'
p609
aS'agent'
p610
aS'Kasi Lemmons'
p611
aS'Val Kilmer'
p612
aS'occur'
p613
aS'Paul Henreid'
p614
aS'winter'
p615
aS'Who'
p616
aS'Kate Winslet'
p617
aS'Nakatomi'
p618
aS'vital'
p619
aS'DeLarge'
p620
aS'Sam Neill'
p621
aS'explorer'
p622
aS'Margaretha Krook'
p623
aS'Ki-duk Kim'
p624
aS'birthday'
p625
aS'James Mason'
p626
aS'heroes'
p627
aS'murderess'
p628
aS'man'
p629
aS'Fury'
p630
aS'wheelchair'
p631
aS'tale'
p632
aS'perfection'
p633
aS'Curtis Hanson'
p634
aS'extractor'
p635
aS'Mississippi'
p636
aS'Gyunggi'
p637
aS'joins'
p638
aS'Hunting'
p639
aS'years'
p640
aS'White'
p641
aS'Bolivia'
p642
aS'Matt Damon'
p643
aS'police'
p644
aS'solace'
p645
aS'window'
p646
aS'suspicion'
p647
aS'World'
p648
aS'prisoners'
p649
aS'Jack'
p650
aS'killer'
p651
aS'Enzo Cannavale'
p652
aS'Rome'
p653
aS'Gordon'
p654
aS'Normandy'
p655
aS'half'
p656
aS'Fritz Lang'
p657
aS'fisherman'
p658
aS'bowling'
p659
aS'Noah Emmerich'
p660
aS'Lew Ayres'
p661
aS'Eliot'
p662
aS'Communists'
p663
aS'Tony Leung Chiu Wai'
p664
aS'Emilia Fox'
p665
aS'Dude'
p666
aS'Bruno Ganz'
p667
aS'year'
p668
aS'girl'
p669
aS'Anne Baxter'
p670
aS'John Frankenheimer'
p671
aS'hacker'
p672
aS'Oskar'
p673
aS'space'
p674
aS'profit'
p675
aS'Claude Rains'
p676
aS'Corleone'
p677
aS'superiors'
p678
aS'theory'
p679
aS'million'
p680
aS'Florence Lee'
p681
aS'spies'
p682
aS'rebel'
p683
aS'Daniel Day-Lewis'
p684
aS'marine'
p685
aS'prospector'
p686
aS'card'
p687
aS'training'
p688
aS'Sidney Lumet'
p689
aS'Federation'
p690
aS'disillusionment'
p691
aS'transition'
p692
aS'tries'
p693
aS'turn'
p694
aS'place'
p695
aS'Grace Kelly'
p696
aS'John Gavin'
p697
aS'unborn'
p698
aS'view'
p699
aS'childhood'
p700
aS'J.D. Cannon'
p701
aS'motel'
p702
aS'Barbara Bel Geddes'
p703
aS'Stark'
p704
aS'Thomas Vinterberg'
p705
aS'Black'
p706
aS'carry'
p707
aS'Hollywood'
p708
aS'engineer'
p709
aS'city'
p710
aS'silent'
p711
aS'caught'
p712
aS'returns'
p713
aS'bounty'
p714
aS'Charles Laughton'
p715
aS'friend'
p716
aS'mining'
p717
aS'Alexandra Maria Lara'
p718
aS'Mozart'
p719
aS'humans'
p720
aS'Robert Cummings'
p721
aS'Jabba'
p722
aS'salesman/adjuster'
p723
aS'History'
p724
aS'Robert Rossen'
p725
aS'scraping'
p726
aS'recruit'
p727
aS'Lester'
p728
aS'future'
p729
aS'William Wyler'
p730
aS'Elijah Wood'
p731
aS'janitor'
p732
aS'Richard Kelly'
p733
aS'George Segal'
p734
aS'angel'
p735
aS'pro'
p736
aS'Al'
p737
aS'racetrack'
p738
aS'comedian'
p739
aS'Jewish'
p740
aS'warriors'
p741
aS'veteran'
p742
aS'take'
p743
aS'Irvin Kershner'
p744
aS'Hall'
p745
aS'urge'
p746
aS'pain'
p747
aS'Ray Milland'
p748
aS'tornado'
p749
aS'falls'
p750
aS'assault'
p751
aS'pair'
p752
aS'Marlene Dietrich'
p753
aS'Young-min Kim'
p754
aS'hardships'
p755
aS'Depression-era'
p756
aS'James Woods'
p757
aS'Vader'
p758
aS'Lee Van Cleef'
p759
aS'Viggo Mortensen'
p760
aS'detective'
p761
aS'jewelers'
p762
aS'show'
p763
aS'opportunist'
p764
aS'jewelery'
p765
aS'therapist'
p766
aS'Sulley'
p767
aS'hack'
p768
aS'corner'
p769
aS'Wants'
p770
aS'John Dall'
p771
aS'Thomas Bo Larsen'
p772
aS'crime'
p773
aS'Ethan Coen'
p774
aS'stand'
p775
aS'George C. Scott'
p776
aS'Thriller'
p777
aS'hostage'
p778
aS'Violence'
p779
aS'Catherine Keener'
p780
aS'Shirley MacLaine'
p781
aS'John Megna'
p782
aS'Archeologist'
p783
aS'Milos Forman'
p784
aS'husband'
p785
aS'WW1'
p786
aS'gangster'
p787
aS'pre-revolution'
p788
aS'college'
p789
aS"Vincent D'Onofrio"
p790
aS'Stephen Chbosky'
p791
aS'Hynkel'
p792
aS'Berlin'
p793
aS'Ruth Gordon'
p794
aS'Ralph Fiennes'
p795
aS'parent'
p796
aS'U.S.'
p797
aS'killing'
p798
aS'Babbitt'
p799
aS'Michel Gondry'
p800
aS'impromptu'
p801
aS'Sharlto Copley'
p802
aS'Jennifer Connelly'
p803
aS'wanders'
p804
aS'Vera Miles'
p805
aS'priests'
p806
aS'monk'
p807
aS'millionaire'
p808
aS'tour'
p809
aS'senator'
p810
aS'railway'
p811
aS'utterance'
p812
aS'Sean Young'
p813
aS'Ewan McGregor'
p814
aS'Death'
p815
aS'madness'
p816
aS'Zachary Quinto'
p817
aS'Ben Affleck'
p818
aS'Ji-tae Yu'
p819
aS'Jack Nicholson'
p820
aS'Asghar Farhadi'
p821
aS'bizarre'
p822
aS'Joan Fontaine'
p823
aS'Midwest'
p824
aS'Frank Overton'
p825
aS'arts'
p826
aS'Klondike'
p827
aS'dictator'
p828
aS'informer'
p829
aS'Princess'
p830
aS'direction'
p831
aS'Audrey Hepburn'
p832
aS'Ernest Borgnine'
p833
aS'thousand'
p834
aS'tiger'
p835
aS'Laurence Olivier'
p836
aS'Agatha'
p837
aS'Action'
p838
aS'Deckard'
p839
aS'case'
p840
aS'Madhavan'
p841
aS'Michael Murphy'
p842
aS'cash'
p843
aS'cast'
p844
aS'tragedy'
p845
aS'Aamir Khan'
p846
aS'investigating'
p847
aS'Jessica Alba'
p848
aS'Alec Guinness'
p849
aS'commander'
p850
aS'middle'
p851
aS'Lunar'
p852
aS'floating'
p853
aS'Frank Miller'
p854
aS'different'
p855
aS'author'
p856
aS'media'
p857
aS'Keir Dullea'
p858
aS'mobster'
p859
aS'speech'
p860
aS'Mia Farrow'
p861
aS'shifty'
p862
aS'events'
p863
aS'week'
p864
aS'oil'
p865
aS'Robert Mulligan'
p866
aS'hunter'
p867
aS'nest'
p868
aS'driver'
p869
aS'II'
p870
aS'Sergei M. Eisenstein'
p871
aS'Inge Landgut'
p872
aS'delicate'
p873
aS'guardians'
p874
aS'James Garner'
p875
aS'Frank Capra'
p876
aS'theater'
p877
aS'Barrier'
p878
aS'revelations'
p879
aS'charges'
p880
aS'Karl Malden'
p881
aS'Edward Burns'
p882
aS'Sang-kyung Kim'
p883
aS'Loki'
p884
aS'Lianella Carell'
p885
aS'trains'
p886
aS'Nazi'
p887
aS'taxi'
p888
aS'Frank Darabont'
p889
aS'money'
p890
aS'Anatoliy Solonitsyn'
p891
aS'actress'
p892
aS'violent'
p893
aS'John Wayne'
p894
aS'socialite'
p895
aS'death'
p896
aS'lets'
p897
aS'Romulan'
p898
aS'grip'
p899
aS'Don Cheadle'
p900
aS'wife.'
p901
aS'rises'
p902
aS'rules'
p903
aS'Island'
p904
aS'Rupert Grint'
p905
aS'Grande'
p906
aS'Adolphe Menjou'
p907
aS"Beverly D'Angelo"
p908
aS'world'
p909
aS'railroad'
p910
aS'clan'
p911
aS'fortune'
p912
aS'stranger'
p913
aS'pounds'
p914
aS'Edward Norton'
p915
aS'buddies'
p916
aS'London'
p917
aS'robbery'
p918
aS'robbers'
p919
aS'Before'
p920
aS'doll'
p921
aS'West'
p922
aS'competition'
p923
aS'Gary Cooper'
p924
aS'Don Taylor'
p925
aS'Dr.'
p926
aS'New'
p927
aS'informant'
p928
aS'Mary'
p929
aS'Vienna'
p930
aS'David Yates'
p931
aS'perverse'
p932
aS'memories'
p933
aS'Men'
p934
aS'Scarlett Johansson'
p935
aS'Hugo Weaving'
p936
aS'freed'
p937
aS'Wilson Yip'
p938
aS'power'
p939
aS'Vietnam'
p940
aS'island'
p941
aS'violence'
p942
aS'Dick Hogan'
p943
aS'Blanche'
p944
aS'Terminator'
p945
aS'neighbor'
p946
aS'assassin'
p947
aS'tribe'
p948
aS'Nicoletta Braschi'
p949
aS'statuette'
p950
aS'Sully Boyar'
p951
aS'widower'
p952
aS'homeless'
p953
aS'Jim Sheridan'
p954
aS'Rob Reiner'
p955
aS'legacy'
p956
aS'area'
p957
aS'totalitarian'
p958
aS'Ness'
p959
aS'Morgan Freeman'
p960
aS'expatriate'
p961
aS'Daniel Radcliffe'
p962
aS'survives'
p963
aS'tycoon'
p964
aS'Christoph Waltz'
p965
aS'wits'
p966
aS'Gollum'
p967
aS'suffers'
p968
aS'Isa Danieli'
p969
aS'Harry'
p970
aS'Philip King'
p971
aS'land.'
p972
aS'Henry Bergman'
p973
aS'flamboyant'
p974
aS'sleaze'
p975
aS'Century'
p976
aS'sleazy'
p977
aS'Roberto Benigni'
p978
aS'Gregory Peck'
p979
aS'gone'
p980
aS'Michael Biehn'
p981
aS'Gerard Butler'
p982
aS'USA'
p983
aS'deep'
p984
aS'general'
p985
aS'How'
p986
aS'lifetime'
p987
aS'deed'
p988
aS'Humanity'
p989
aS'film'
p990
aS'Clive Owen'
p991
aS'Tatsuya Nakadai'
p992
aS'Mary Gibbs'
p993
aS'Darth'
p994
aS'Francis Ford Coppola'
p995
aS'Dark'
p996
aS'Amadeus'
p997
aS'mathematics'
p998
aS'assassin.'
p999
aS'Mary Astor'
p1000
aS'brash'
p1001
aS'Great'
p1002
aS'John Hurt'
p1003
aS'Alex'
p1004
aS'Charles Chaplin'
p1005
aS'Stanley Donen'
p1006
aS'Keith David'
p1007
aS'pool'
p1008
aS'assassins'
p1009
aS'Mexican'
p1010
aS'wife'
p1011
aS'Max von Sydow'
p1012
aS'Steve McQueen'
p1013
aS'neighbors'
p1014
aS'high-school-age'
p1015
aS'Tony Roberts'
p1016
aS'suburban'
p1017
aS'Paul Butcher'
p1018
aS'Renton'
p1019
aS'children'
p1020
aS'reluctant'
p1021
aS'Brown'
p1022
aS'apartment'
p1023
aS'former'
p1024
aS'safety'
p1025
aS'Doo-Man'
p1026
aS'activities'
p1027
aS'woman'
p1028
aS'returning'
p1029
aS'horror'
p1030
aS'Andy Wachowski'
p1031
aS'Alaska'
p1032
aS'psychologist'
p1033
aS'sons'
p1034
aS'Uma Thurman'
p1035
aS'Ridley Scott'
p1036
aS'John Sturges'
p1037
aS'Bonnie Bedelia'
p1038
aS'heist'
p1039
aS'manager'
p1040
aS'Toni Collette'
p1041
aS'Vito'
p1042
aS'Ring'
p1043
aS'neighborhood'
p1044
aS'Jason Flemyng'
p1045
aS'problem...'
p1046
aS'lawyer'
p1047
aS'Charlton Heston'
p1048
aS'turning'
p1049
aS'East'
p1050
aS'Shelley Duvall'
p1051
aS'creatures'
p1052
aS'Tom Skerritt'
p1053
aS'Korea'
p1054
aS'Janet Leigh'
p1055
aS'eminent'
p1056
aS'Angus Macfadyen'
p1057
aS'version'
p1058
aS'Kirk Douglas'
p1059
aS'nurse'
p1060
aS'Jonathan Demme'
p1061
aS'womb'
p1062
aS'tattoos'
p1063
aS'recruits'
p1064
aS'Faye Dunaway'
p1065
aS'Charlie'
p1066
aS'ballet'
p1067
aS'answers'
p1068
aS'Arthur'
p1069
aS'situation'
p1070
aS'John Fiedler'
p1071
aS'Tsutomu Tatsumi'
p1072
aS'Richard Marquand'
p1073
aS'Rutger Hauer'
p1074
aS'kissing'
p1075
aS'addictions'
p1076
aS'monk.'
p1077
aS'search'
p1078
aS'naval'
p1079
aS'soldier'
p1080
aS'Robert Redford'
p1081
aS'advertising'
p1082
aS'action'
p1083
aS'Odette'
p1084
aS'Forrest'
p1085
aS'inspires'
p1086
aS'Prohibition-era'
p1087
aS'trainer'
p1088
aS'Robert Downey Jr.'
p1089
aS'family'
p1090
aS'Tom Cruise'
p1091
aS'America.'
p1092
aS'Richard White'
p1093
aS'captor'
p1094
aS'T-101'
p1095
aS'Robert Walker'
p1096
aS'Agnes Moorehead'
p1097
aS'takes'
p1098
aS'Brian De Palma'
p1099
aS'Neill Blomkamp'
p1100
aS'Film-Noir'
p1101
aS'John Savage'
p1102
aS'Connor'
p1103
aS'Orlando Bloom'
p1104
aS'Noriko Hidaka'
p1105
aS'teen'
p1106
aS'diamond'
p1107
aS'Candice Bergen'
p1108
aS'company'
p1109
aS'domination'
p1110
aS'Steven Spielberg'
p1111
aS'Frank Sinatra'
p1112
aS'town'
p1113
aS'Senate.'
p1114
aS'recall'
p1115
aS'policemen'
p1116
aS'patriarch'
p1117
aS'Coney'
p1118
aS'guards'
p1119
aS'Bill Murray'
p1120
aS'wrestler'
p1121
aS'Hitler'
p1122
aS'history'
p1123
aS'shark'
p1124
aS'Jason Robards'
p1125
aS'scam'
p1126
aS'William Sylvester'
p1127
aS'Shelley Winters'
p1128
aS'collision'
p1129
aS'Reginald VelJohnson'
p1130
aS'information'
p1131
aS'Burt Young'
p1132
aS'court'
p1133
aS'underwear.'
p1134
aS'acts'
p1135
aS'influences'
p1136
aS'Benicio Del Toro'
p1137
aS'Clark Gable'
p1138
aS'Lower'
p1139
aS'Ezra Miller'
p1140
aS'Jay Baruchel'
p1141
aS'Tom Hanks'
p1142
aS'adventure'
p1143
aS'refuse'
p1144
aS'Elizabeth McGovern'
p1145
aS'Terry George'
p1146
aS'Mexico'
p1147
aS'footsteps'
p1148
aS'Hugh Jackman'
p1149
aS'Lamberto Maggiorani'
p1150
aS'dragon'
p1151
aS'hobbit'
p1152
aS'Laurence Harvey'
p1153
aS'dream'
p1154
aS'Dobbs'
p1155
aS'What'
p1156
aS'help'
p1157
aS'hierarchy'
p1158
aS'mission'
p1159
aS'Jedi'
p1160
aS'scientist'
p1161
aS'John Carradine'
p1162
aS'existence'
p1163
aS'Leia'
p1164
aS'MIT'
p1165
aS'Benjamin'
p1166
aS'possessions'
p1167
aS'forebodings'
p1168
aS'assaulting'
p1169
aS'Adrien Brody'
p1170
aS'Gore Verbinski'
p1171
aS'John Wray'
p1172
aS'bout'
p1173
aS'Daryl Hannah'
p1174
aS'abandons'
p1175
aS'postwar'
p1176
aS'Michael'
p1177
aS'Denholm Elliott'
p1178
aS'Claudia Cardinale'
p1179
aS'Ralph Meeker'
p1180
aS'mystery'
p1181
aS'Edward G. Robinson'
p1182
aS'pregnant'
p1183
aS'truths'
p1184
aS'Scottish'
p1185
aS'fairy'
p1186
aS'Sport'
p1187
aS'friendship'
p1188
aS'Debbie Reynolds'
p1189
aS'breakdown'
p1190
aS'Zone'
p1191
aS'Gunderson'
p1192
aS'David Morse'
p1193
aS'Tyrone Power'
p1194
aS'persona'
p1195
aS'Virginia Cherrill'
p1196
aS'operation'
p1197
aS'insurance'
p1198
aS'flower'
p1199
aS'Michael Curtiz'
p1200
aS'alcohol'
p1201
aS'clandestine'
p1202
aS'I'
p1203
aS'Eight'
p1204
aS'Doom'
p1205
aS'Matthew Broderick'
p1206
aS'circumstance'
p1207
aS'Robert Zemeckis'
p1208
aS'Alfred Hitchcock'
p1209
aS'Plaza'
p1210
aS'Drama'
p1211
aS'Diane Keaton'
p1212
aS'beginning'
p1213
aS'Marlon Brando'
p1214
aS'launch'
p1215
aS'Martin Freeman'
p1216
aS'prejudice'
p1217
aS'investigates'
p1218
aS'undergo'
p1219
aS'co-operates'
p1220
aS'Marisa Berenson'
p1221
aS'girls'
p1222
aS'number'
p1223
aS'Indian'
p1224
aS'visions'
p1225
aS'M. Night Shyamalan'
p1226
aS'Geoffrey Rush'
p1227
aS'story'
p1228
aS'"'
p1229
aS'heads'
p1230
aS'family.'
p1231
aS'bookmakers'
p1232
aS'Christopher Carley'
p1233
aS'steals'
p1234
aS'scheme'
p1235
aS'aristocracy'
p1236
aS'ex-TV'
p1237
aS'ravings'
p1238
aS'relationship'
p1239
aS'hotel'
p1240
aS'park'
p1241
aS'part'
p1242
aS'kind'
p1243
aS'bride'
p1244
aS'Donnie Yen'
p1245
aS'Suzanne Pleshette'
p1246
aS'Mumbai'
p1247
aS'Jack Lemmon'
p1248
aS'Patrick Magee'
p1249
aS'B'
p1250
aS'Corey Feldman'
p1251
aS'paths'
p1252
aS'John Travolta'
p1253
aS'check'
p1254
aS'province'
p1255
aS'Min-sik Choi'
p1256
aS'towards'
p1257
aS'Adam Baldwin'
p1258
aS'Martins'
p1259
aS'eggs'
p1260
aS'sets'
p1261
aS'virus'
p1262
aS'Nathalie Boltt'
p1263
aS'plan'
p1264
aS'Grail'
p1265
aS'pittance'
p1266
aS'The'
p1267
aS'screenwriter'
p1268
aS'Martin Scorsese'
p1269
aS'Suraj Sharma'
p1270
aS'Albert Brooks'
p1271
aS'Robinson'
p1272
aS'rebels'
p1273
aS'Han'
p1274
aS'Woody Allen'
p1275
aS'Hill'
p1276
aS'Alexander Gould'
p1277
aS'NYPD'
p1278
aS'delinquent'
p1279
aS'justice'
p1280
aS'Lillian Gish'
p1281
aS'writer'
p1282
aS'paranoia'
p1283
aS'idiots'
p1284
aS'Lee Unkrich'
p1285
aS'Orson Welles'
p1286
aS'circle'
p1287
aS'giants'
p1288
aS'magicians'
p1289
aS'hit'
p1290
aS'Steve Buscemi'
p1291
aS'While'
p1292
aS'Peter Brocco'
p1293
aS'reporters'
p1294
aS'Connie Nielsen'
p1295
aS'Ellen Page'
p1296
aS'enemy'
p1297
aS'Raymond'
p1298
aS'Christopher Lloyd'
p1299
aS'witches'
p1300
aS'archaeologist'
p1301
aS'outlaw'
p1302
aS'insane'
p1303
aS'set'
p1304
aS'art'
p1305
aS'intelligence'
p1306
aS'lion'
p1307
aS'Shire'
p1308
aS'sea'
p1309
aS'Disgruntled'
p1310
aS'Mark Ruffalo'
p1311
aS'Ang Lee'
p1312
aS'learns'
p1313
aS'Joan Cusack'
p1314
aS'Lee Remick'
p1315
aS'Park'
p1316
aS'stowaway'
p1317
aS'Walter Connolly'
p1318
aS'Michelle Pfeiffer'
p1319
aS'conditions'
p1320
aS'corruption'
p1321
aS'King'
p1322
aS'Jason Cope'
p1323
aS'missing'
p1324
aS'Sareh Bayat'
p1325
aS'Tate Taylor'
p1326
aS'outfit'
p1327
aS'Harry Myers'
p1328
aS'Annie'
p1329
aS'Fred Zinnemann'
p1330
aS'Detective'
p1331
aS'Jack Oakie'
p1332
aS'restaurant'
p1333
aS'Carrie Henn'
p1334
aS'Henning Moritzen'
p1335
aS'Curran'
p1336
aS'Aleksandr Antonov'
p1337
aS'connection'
p1338
aS'tightens'
p1339
aS'occurrences.'
p1340
aS'Guy Ritchie'
p1341
aS'finds'
p1342
aS'Teddy'
p1343
aS'community'
p1344
aS'dancer'
p1345
aS'Alison Crosbie'
p1346
aS'village'
p1347
aS'War'
p1348
aS'Giorgio Cantarini'
p1349
aS'publishing'
p1350
aS'suburbs'
p1351
aS'secret'
p1352
aS'manhunt'
p1353
aS'Carl'
p1354
aS'Leila Hatami'
p1355
aS'champion'
p1356
aS'cyborg'
p1357
aS'Allied'
p1358
aS'lives'
p1359
aS'stolen'
p1360
aS'Old'
p1361
aS'Chinese'
p1362
aS'Carrie Fisher'
p1363
aS'holocaust'
p1364
aS'governor'
p1365
aS'John Goodman'
p1366
aS'Akira Kurosawa'
p1367
aS'McCandless'
p1368
aS'Oliver Hirschbiegel'
p1369
aS'McClane'
p1370
aS'guide'
p1371
aS'flees'
p1372
aS'City'
p1373
aS'underground'
p1374
aS'embarks'
p1375
aS'Sean Bean'
p1376
aS'Dictator'
p1377
aS'facade'
p1378
aS'Luke'
p1379
aS'disappearance'
p1380
aS'Adventure'
p1381
aS'strangers'
p1382
aS'Federico Fellini'
p1383
aS'coma.'
p1384
aS'mountain'
p1385
aS'henchmen'
p1386
aS'Sigourney Weaver'
p1387
aS'uses'
p1388
aS'decency'
p1389
aS'Tim Roth'
p1390
aS'timid'
p1391
aS'task'
p1392
aS'spaceman'
p1393
aS'Haya Harareet'
p1394
aS'Holmes Osborne'
p1395
aS'Andie MacDowell'
p1396
aS'person'
p1397
aS'edge'
p1398
aS'Katharine Ross'
p1399
aS'POW'
p1400
aS'Gruber'
p1401
aS'Farley Granger'
p1402
aS'Jordan Nagai'
p1403
aS'Madre'
p1404
aS'shape'
p1405
aS'Reconstruction'
p1406
aS'mob'
p1407
aS'Comedy'
p1408
aS'Tony Curtis'
p1409
aS'Amity'
p1410
aS'cemetery'
p1411
aS'Tom Murray'
p1412
aS'parents'
p1413
aS'cub'
p1414
aS'Dana Andrews'
p1415
aS'Marine'
p1416
aS'Avengers'
p1417
aS'Talia Shire'
p1418
aS'Daniels'
p1419
aS'victims'
p1420
aS'They'
p1421
aS'Robert Shaw'
p1422
aS'Oh'
p1423
aS'couple'
p1424
aS'Roe-ha Kim'
p1425
aS'game'
p1426
aS'quest'
p1427
aS'bloody'
p1428
aS'wings'
p1429
aS'Kirk'
p1430
aS'George Kennedy'
p1431
aS'Tim Robbins'
p1432
aS'individuals'
p1433
aS'Brad Bird'
p1434
aS'pals'
p1435
aS'Monstropolis'
p1436
aS'Bruce Willis'
p1437
aS'Andy'
p1438
aS'Tim Allen'
p1439
aS'affects'
p1440
aS'decision'
p1441
aS'religion'
p1442
aS'Malcolm McDowell'
p1443
aS'Smaug'
p1444
aS'Hue'
p1445
aS'crooks'
p1446
aS'rug'
p1447
aS'Antonio'
p1448
aS'become'
p1449
aS'refuses'
p1450
aS'Bob'
p1451
aS'Martin Balsam'
p1452
aS'Viola Davis'
p1453
aS'Ron'
p1454
aS'Bilbo'
p1455
aS'militia'
p1456
aS'Jake Gyllenhaal'
p1457
aS'Dorothy'
p1458
aS'Captain'
p1459
aS'Leonardo DiCaprio'
p1460
aS'Row'
p1461
aS'ensue'
p1462
aS'Their'
p1463
aS'seasons'
p1464
aS'William H. Macy'
p1465
aS'Lewis Milestone'
p1466
aS'John Lasseter'
p1467
aS'John Cleese'
p1468
aS'Peter Finch'
p1469
aS'newsman'
p1470
aS'hapless'
p1471
aS'inept'
p1472
aS'Jane Darwell'
p1473
aS'slums'
p1474
aS'boys'
p1475
aS'Oliver Stone'
p1476
aS'Africa'
p1477
aS'planet'
p1478
aS'Marisa Tomei'
p1479
aS'defendant'
p1480
aS'aversion'
p1481
aS'Master'
p1482
aS'replicants'
p1483
aS'door.'
p1484
aS'influence'
p1485
aS'Rajkumar Hirani'
p1486
aS'To'
p1487
aS'Sierra'
p1488
aS'John Carpenter'
p1489
aS'troublemaker'
p1490
aS'Manhattan'
p1491
aS'Nazis'
p1492
aS'Marilyn Monroe'
p1493
aS'Commissioner'
p1494
aS'sullen'
p1495
aS'insomniac'
p1496
aS'TV'
p1497
aS'Max'
p1498
aS'politicians'
p1499
aS'department'
p1500
aS'Curtin'
p1501
aS'Paul Dano'
p1502
aS'Man'
p1503
aS'Bryce Dallas Howard'
p1504
aS"Ryan O'Neal"
p1505
aS'Peter Stormare'
p1506
aS'T.'
p1507
aS'meaning'
p1508
aS'Emmett'
p1509
aS'Craig Ferguson'
p1510
aS'sides'
p1511
aS'land'
p1512
aS'fighter'
p1513
aS'holes'
p1514
aS'Tricked'
p1515
aS'Ben Gazzara'
p1516
aS'Humphrey Bogart'
p1517
aS'rallies'
p1518
aS'Turner'
p1519
aS'rescues'
p1520
aS'Warsaw'
p1521
aS'wilderness.'
p1522
aS'Yeong-su Oh'
p1523
aS'Helena Bonham Carter'
p1524
aS'results'
p1525
aS'commoner'
p1526
aS'Bengal'
p1527
aS'alien'
p1528
aS'weatherman'
p1529
aS'Spock'
p1530
aS'infatuation'
p1531
aS'flashback'
p1532
aS'Clyde Bruckman'
p1533
aS'Jinpachi Nezu'
p1534
aS'detectives'
p1535
aS'H.A.L.'
p1536
aS'gold'
p1537
aS'daring'
p1538
aS'young'
p1539
aS'Gladys George'
p1540
aS'Anthony Perkins'
p1541
aS'Sefton'
p1542
aS'helps'
p1543
aS'stable'
p1544
aS'Tommy Lee Jones'
p1545
aS'Now'
p1546
aS'sent'
p1547
aS'Mrs.'
p1548
aS'Michael Mann'
p1549
aS'Thomas Mitchell'
p1550
aS'surgeon'
p1551
aS'notes'
p1552
aS'compassionate'
p1553
aS'Tanay Chheda'
p1554
aS'race'
p1555
aS'Coleen Gray'
p1556
aS'Cathy Moriarty'
p1557
aS'Skywalker'
p1558
aS'traveling'
p1559
aS'Ellen DeGeneres'
p1560
aS'Victor Jory'
p1561
aS'Joss Whedon'
p1562
aS'Lonely'
p1563
aS'plays'
p1564
aS'business'
p1565
aS'dealer'
p1566
aS'colonel'
p1567
aS'desperado'
p1568
aS'Joe Pesci'
p1569
aS'John Huston'
p1570
aS'Reef'
p1571
aS'America'
p1572
aS'Rusesabagina'
p1573
aS'body'
p1574
aS'Alida Valli'
p1575
aS'Light'
p1576
aS'Wilford Brimley'
p1577
aS'Tutsi'
p1578
aS'others'
p1579
aS'silent-film'
p1580
aS'Greed'
p1581
aS'Gene Kelly'
p1582
aS'great'
p1583
aS'survivor'
p1584
aS'Harrison Ford'
p1585
aS"Paige O'Hara"
p1586
aS'Stephen Baldwin'
p1587
aS'Arabia'
p1588
aS'implement'
p1589
aS'maker'
p1590
aS'Joel Coen'
p1591
aS'Mountain'
p1592
aS'Vincent Cassel'
p1593
aS'Vince Edwards'
p1594
aS'Emory'
p1595
aS'DuBois'
p1596
aS'confession'
p1597
aS'Nick'
p1598
aS'Yip'
p1599
aS'Carl Miller'
p1600
aS'Solo'
p1601
aS'Bob Gunton'
p1602
aS'David Carradine'
p1603
aS'Alec Cawthorne'
p1604
aS'Jeremy Irons'
p1605
aS'Sophie Marceau'
p1606
aS'examination'
p1607
aS'themselves'
p1608
aS'Matthew Modine'
p1609
aS'possession'
p1610
aS'Richard Basehart'
p1611
aS'imprisons'
p1612
aS'becomes'
p1613
aS'musician'
p1614
aS'Josh Brolin'
p1615
aS'Gump'
p1616
aS'rabbit'
p1617
aS'rivalry'
p1618
aS'women'
p1619
aS'account'
p1620
aS'crosses'
p1621
aS'animals'
p1622
aS'meek'
p1623
aS'Brad Pitt'
p1624
aS'Graham Chapman'
p1625
aS"Peter O'Toole"
p1626
aS'Leandro Firmino'
p1627
aS'Tony Kaye'
p1628
aS'Lundegaard'
p1629
aS'servants'
p1630
aS'Nevada'
p1631
aS'something'
p1632
aS'control'
p1633
aS'bent'
p1634
aS'escapes'
p1635
aS'process'
p1636
aS'Danny Lloyd'
p1637
aS'Mr.'
p1638
aS'Dorothy Comingore'
p1639
aS'ascension'
p1640
aS'Christmas'
p1641
aS'rape'
p1642
aS'Carrie-Anne Moss'
p1643
aS'Ka Tung Lam'
p1644
aS'Penelope Allen'
p1645
aS'boxing'
p1646
aS'Fred MacMurray'
p1647
aS'struggles'
p1648
aS'Beast'
p1649
aS'forest'
p1650
aS'Peter Jackson'
p1651
aS'restitution'
p1652
aS'intelligent'
p1653
aS'George Sanders'
p1654
aS'Tim Holt'
p1655
aS'aspiring'
p1656
aS'farm'
p1657
aS'Roman'
p1658
aS'Hermione'
p1659
aS'Gwyneth Paltrow'
p1660
aS'Clint Eastwood'
p1661
aS'Chan-wook Park'
p1662
aS'Marlowe'
p1663
aS'S.O.S.'
p1664
aS'gone.'
p1665
aS'Joon-ho Bong'
p1666
aS'lines'
p1667
aS'chief'
p1668
aS'stakes'
p1669
aS'Tom Hulce'
p1670
aS'move'
p1671
aS'Lou Romano'
p1672
aS'wilds'
p1673
aS'Nick Nolte'
p1674
aS'tyrant'
p1675
aS'galaxy'
p1676
aS'gunslinger'
p1677
aS'Otto Preminger'
p1678
aS'Mila Kunis'
p1679
aS'criminal'
p1680
aS'blackmail'
p1681
aS'Joaquin Phoenix'
p1682
aS'Irrfan Khan'
p1683
aS'Miami'
p1684
aS'day'
p1685
aS'Jared Leto'
p1686
aS'San'
p1687
aS'Sam'
p1688
aS'Laura Dern'
p1689
aS'truth'
p1690
aS'beneath'
p1691
aS'seniors'
p1692
aS'Willard'
p1693
aS'society'
p1694
aS'witness'
p1695
aS'rep'
p1696
aS'Sauron'
p1697
aS'James Earl Jones'
p1698
aS'Chris Sarandon'
p1699
aS'Landings'
p1700
aS'Ian McKellen'
p1701
aS'Bee Vang'
p1702
aS'Saurabh Shukla'
p1703
aS'Alvy'
p1704
aS'princess'
p1705
aS'allies'
p1706
aS'Marshal'
p1707
aS'Isao Takahata'
p1708
aS'south'
p1709
aS'obscurity'
p1710
aS'Roger Allers'
p1711
aS'Lea Thompson'
p1712
aS'scene'
p1713
aS'owner'
p1714
aS'decides'
p1715
aS'quality'
p1716
aS'Iran'
p1717
aS'demonstration'
p1718
aS'Tom Hooper'
p1719
aS'attack'
p1720
aS'Bryan Singer'
p1721
aS'Marge'
p1722
aS'neo-nazi'
p1723
aS'Bride'
p1724
aS'Charles Martin Smith'
p1725
aS'Andrey Tarkovskiy'
p1726
aS'institution'
p1727
aS'Valeria Golino'
p1728
aS'Eli Wallach'
p1729
aS'William Holden'
p1730
aS'patients'
p1731
aS'Glen Cavender'
p1732
aS'loves'
p1733
aS'lover'
p1734
aS'Mel Gibson'
p1735
aS'Lime'
p1736
aS'T-1000'
p1737
aS'Sydney'
p1738
aS'Jim Carrey'
p1739
aS'Horcruxes'
p1740
aS'Singer'
p1741
aS'horrors'
p1742
aS'Lee J. Cobb'
p1743
aS'Ruth Roman'
p1744
aS'border'
p1745
aS'Batman'
p1746
aS'admittance'
p1747
aS'Kareena Kapoor'
p1748
aS'soap'
p1749
aS'PoW'
p1750
aS'Gary Lockwood'
p1751
aS'vengeance'
p1752
aS'eight'
p1753
aS'Gloria Swanson'
p1754
aS'prisoner'
p1755
aS'payment'
p1756
aS'spirits'
p1757
aS'volunteers'
p1758
aS'disease'
p1759
aS'businessman'
p1760
aS'affair'
p1761
aS'vacancy'
p1762
aS'Russell Crowe'
p1763
aS'soldiers'
p1764
aS'asylum'
p1765
aS'Barry Levinson'
p1766
aS'employer'
p1767
aS'Julianne Moore'
p1768
aS'York'
p1769
aS'Michael Caine'
p1770
aS'thousands'
p1771
aS'Mandy Patinkin'
p1772
aS'inferior'
p1773
aS'Shadows'
p1774
aS'Xolani Mali'
p1775
aS'Eric Idle'
p1776
aS'means'
p1777
aS'massacre'
p1778
aS'ones'
p1779
aS'Mark Hamill'
p1780
aS'Christopher Plummer'
p1781
aS'wise'
p1782
aS'entity'
p1783
aS'ghetto'
p1784
aS'DeLorean'
p1785
aS'Fredric March'
p1786
aS'rescuing'
p1787
aS'teams'
p1788
aS'bathhouse'
p1789
aS'juror'
p1790
aS"Barbara O'Neil"
p1791
aS'marries'
p1792
aS'widow'
p1793
aS'Burnham'
p1794
aS'conform'
p1795
aS'Lake'
p1796
aS'Sr.'
p1797
aS'immigrant'
p1798
aS'computer'
p1799
aS'Chris Elliott'
p1800
aS'closer'
p1801
aS'Arnold Schwarzenegger'
p1802
aS'reform'
p1803
aS'Britain'
p1804
aS'genius'
p1805
aS'state'
p1806
aS'Michael Berryman'
p1807
aS'John Cassavetes'
p1808
aS'Laura Linney'
p1809
aS'job'
p1810
aS'Ron Howard'
p1811
aS'group'
p1812
aS'Emile Hirsch'
p1813
aS'P.'
p1814
aS'FBI'
p1815
aS'career'
p1816
aS'Sam Mendes'
p1817
aS'Donna Reed'
p1818
aS'supplants'
p1819
aS'drug'
p1820
aS'Judy Garland'
p1821
aS'Woody'
p1822
aS'Mafia'
p1823
aS'Franklin J. Schaffner'
p1824
aS'invites'
p1825
aS'Ray Liotta'
p1826
aS'Simon Yam'
p1827
aS'Los'
p1828
aS'Robin Wright'
p1829
aS'Music'
p1830
aS'news'
p1831
aS'confronts'
p1832
aS'William Friedkin'
p1833
aS'Jodie Foster'
p1834
aS'outlaws'
p1835
aS'gaze'
p1836
aS'kitchen'
p1837
aS'Haley Joel Osment'
p1838
aS'circus'
p1839
aS'skinhead'
p1840
aS'Dent'
p1841
aS'ridden'
p1842
aS'Hobbit'
p1843
aS'Richard Burton'
p1844
aS'Force'
p1845
aS'Tom Berenger'
p1846
aS'appearance'
p1847
aS'Eddie Albert'
p1848
aS'captors'
p1849
aS'surface'
p1850
aS'Imperial'
p1851
aS'Sally Field'
p1852
aS'adultery'
p1853
aS'partner'
p1854
aS'Viking'
p1855
aS'terrorist'
p1856
aS'yuppie'
p1857
aS'romance'
p1858
aS'strange'
p1859
aS'Karen Allen'
p1860
aS'party'
p1861
aS'gets'
p1862
aS'kidnapping'
p1863
aS'slave'
p1864
aS'promoters'
p1865
aS'Chris Evans'
p1866
aS'student'
p1867
aS'identity'
p1868
aS'destruction'
p1869
aS'center'
p1870
aS'Susan Egan'
p1871
aS'Peter Sellers'
p1872
aS'Fantasy'
p1873
aS'command'
p1874
aS'Vittorio De Sica'
p1875
aS'position'
p1876
aS'Aaron Eckhart'
p1877
aS'moments'
p1878
aS'executive'
p1879
aS'Munny'
p1880
aS'Tramp'
p1881
aS'Marion Mack'
p1882
aS'Tahoe'
p1883
aS'Evan Rachel Wood'
p1884
aS'rest'
p1885
aS'graduate'
p1886
aS'Be'
p1887
aS'Hutu'
p1888
aS'Hutt'
p1889
aS'point'
p1890
aS'lake'
p1891
aS'Hilary Swank'
p1892
aS'balloons'
p1893
aS'match'
p1894
aS'stumbles'
p1895
aS'Mickey Rourke'
p1896
aS'government'
p1897
aS'Joel Edgerton'
p1898
aS'Ulrich Matthes'
p1899
aS'messiah'
p1900
aS'Kevin Costner'
p1901
aS'fearsome'
p1902
aS'gambling'
p1903
aS'loss'
p1904
aS'renegade'
p1905
aS'lost'
p1906
aS'clown'
p1907
aS'loses'
p1908
aS'controllers'
p1909
aS'Walter Huston'
p1910
aS'Henry Fonda'
p1911
aS'works'
p1912
aS'refugees'
p1913
aS'Robby Benson'
p1914
aS'Giulietta Masina'
p1915
aS'Rwanda'
p1916
aS'Finch'
p1917
aS'home'
p1918
aS'empire'
p1919
aS'scarer'
p1920
aS'happens'
p1921
aS'lead'
p1922
aS'Billy Crystal'
p1923
aS'Alzheimer'
p1924
aS'bosses'
p1925
aS'Steven Bauer'
p1926
aS'Ray Bolger'
p1927
aS'George Roy Hill'
p1928
aS'stage'
p1929
aS'throne'
p1930
aS'sister'
p1931
aS'freedom'
p1932
aS'US'
p1933
aS'Gale'
p1934
aS'carries'
p1935
aS'Americans'
p1936
aS'more..'
p1937
aS'Hayao Miyazaki'
p1938
aS'Japan'
p1939
aS'emperor'
p1940
aS'executives'
p1941
aS'cadet'
p1942
aS'alliance'
p1943
aS'wilderness'
p1944
aS'Sophie Okonedo'
p1945
aS'brands'
p1946
aS'champ'
p1947
aS'Scientists'
p1948
aS'fraud'
p1949
aS'Ian Holm'
p1950
aS'Covenant'
p1951
aS'Mountains'
p1952
aS'utopias'
p1953
aS'Crooks'
p1954
aS'Upon'
p1955
aS'proprietor'
p1956
aS'Joseph Gordon-Levitt'
p1957
aS'introvert'
p1958
aS'California'
p1959
aS'ditsy'
p1960
aS'mutiny'
p1961
aS'Josephine Hull'
p1962
aS'brand'
p1963
aS'Grigori Aleksandrov'
p1964
aS'construction'
p1965
aS'remote'
p1966
aS'tactics'
p1967
aS'Jenny'
p1968
aS'Ulrich Thomsen'
p1969
aS'Wendell Corey'
p1970
aS'Colin Firth'
p1971
aS'Walt'
p1972
aS'cruel'
p1973
aS'convince'
p1974
aS'Jonny Lee Miller'
p1975
aS'heiress'
p1976
aS'problem'
p1977
aS'Lebowski'
p1978
aS'Elia Kazan'
p1979
aS'Ben Kingsley'
p1980
aS'Kevin Spacey'
p1981
aS'recounts'
p1982
aS'Antonella Attili'
p1983
aS'enlists'
p1984
aS'Gerry Robert Byrne'
p1985
aS'Sean Penn'
p1986
aS'I.R.A.'
p1987
aS'boot'
p1988
aS'book'
p1989
aS'illusion'
p1990
aS'David Fincher'
p1991
aS'star'
p1992
aS'Jeff Goldblum'
p1993
aS'living'
p1994
aS'class'
p1995
aS'Schindler'
p1996
aS'chance'
p1997
aS'Tom Sizemore'
p1998
aS'friends'
p1999
aS'Musical'
p2000
aS'South'
p2001
aS'Robert De Niro'
p2002
aS'Pete Docter'
p2003
aS'Sparrow'
p2004
aS'Ellen Widmann'
p2005
aS'Sean Connery'
p2006
aS'Toshiyuki Amagasa'
p2007
aS'Elwood'
p2008
aS'cartel'
p2009
aS'biotechnology'
p2010
a.