(lp0
S'hordes'
p1
aS'dynasty'
p2
aS'mansion'
p3
aS'liar'
p4
aS'Scarecrow'
p5
aS'neighbours'
p6
aS'Western'
p7
aS'lord'
p8
aS'regrets'
p9
aS'Mystery'
p10
aS'League'
p11
aS'compassion'
p12
aS'Henry'
p13
aS'school'
p14
aS'investigator'
p15
aS'Joseph Melito'
p16
aS'James McTeigue'
p17
aS'barracks'
p18
aS'Paul'
p19
aS'Lawrence A. Bonney'
p20
aS'Carol Reed'
p21
aS'bicycle'
p22
aS'ingenue'
p23
aS'Christie'
p24
aS'chef'
p25
aS'street'
p26
aS'machines'
p27
aS'decadence'
p28
aS'spouses'
p29
aS'hide'
p30
aS'Andrew Stanton'
p31
aS'ruthless'
p32
aS'Buster Keaton'
p33
aS'while'
p34
aS'Sterling Hayden'
p35
aS'John G. Avildsen'
p36
aS'Gus Van Sant'
p37
aS'Barbara Stanwyck'
p38
aS'Anne Bancroft'
p39
aS'Phellipe Haagensen'
p40
aS'Don Rickles'
p41
aS'Jackie Coogan'
p42
aS'Frank Finlay'
p43
aS'Wil Wheaton'
p44
aS'men'
p45
aS'Disturbed'
p46
aS'Mordor'
p47
aS'hers'
p48
aS'path'
p49
aS'Ingrid Bergman'
p50
aS'generals'
p51
aS'daughter'
p52
aS'leaves'
p53
aS'James Caan'
p54
aS'anchor'
p55
aS'Paul Freeman'
p56
aS'mentor'
p57
aS'bunker'
p58
aS'Orleans'
p59
aS'acrophobia'
p60
aS'Harvey'
p61
aS'patience'
p62
aS'Behind'
p63
aS'Basin'
p64
aS'Epic'
p65
aS"Donald O'Connor"
p66
aS'plot'
p67
aS'criminals'
p68
aS'Star'
p69
aS'army'
p70
aS'Madeleine Stowe'
p71
aS'David Lynch'
p72
aS'preview'
p73
aS'Anil Kapoor'
p74
aS'brings'
p75
aS'Quentin Tarantino'
p76
aS'tying'
p77
aS'V'
p78
aS'Johnny Depp'
p79
aS'Eva Marie Saint'
p80
aS'society.'
p81
aS'room'
p82
aS'rights'
p83
aS'work'
p84
aS'Emma Stone'
p85
aS'movies'
p86
aS'entertainer'
p87
aS'Edna Purviance'
p88
aS'example'
p89
aS'Gene Hackman'
p90
aS'misfortunes'
p91
aS'Wizard'
p92
aS'Jerry'
p93
aS'dragons'
p94
aS'Billy Wilder'
p95
aS'savant'
p96
aS'Lord'
p97
aS'swordplay'
p98
aS'Junge'
p99
aS'aging'
p100
aS'end'
p101
aS'LA'
p102
aS'travel'
p103
aS'trysts'
p104
aS'revisit'
p105
aS'Jack'
p106
aS'rookie'
p107
aS'scaring'
p108
aS'A'
p109
aS'Logan Lerman'
p110
aS'Voldemort'
p111
aS'Will'
p112
aS'Yorker'
p113
aS'law'
p114
aS'fleet'
p115
aS'attempt'
p116
aS'Civil'
p117
aS'wins'
p118
aS'revolt'
p119
aS'Yoda'
p120
aS'Harvey Keitel'
p121
aS'rogue'
p122
aS'waitress'
p123
aS'maids'
p124
aS'James Stewart'
p125
aS'order'
p126
aS'office'
p127
aS'Joseph L. Mankiewicz'
p128
aS'Liam Neeson'
p129
aS'bombing'
p130
aS'Louise Fletcher'
p131
aS'His'
p132
aS'harmonica'
p133
aS'exhibits'
p134
aS'crew'
p135
aS'plantation'
p136
aS'production'
p137
aS'Patton Oswalt'
p138
aS'Kurt Russell'
p139
aS'Adam Elliot'
p140
aS'cop.'
p141
aS'band'
p142
aS'therapy'
p143
aS'effects'
p144
aS'Natalie Portman'
p145
aS'bank'
p146
aS'Edward Asner'
p147
aS'shadowy'
p148
aS'slavery'
p149
aS'bunny'
p150
aS'feeds'
p151
aS'loyalties'
p152
aS'Robert Ryan'
p153
aS'bond'
p154
aS'Kim Hunter'
p155
aS'Edward Fox'
p156
aS'series'
p157
aS'crimes'
p158
aS'Ingmar Bergman'
p159
aS'George Lucas'
p160
aS'Baggins'
p161
aS'Darsheel Safary'
p162
aS'dispiriting'
p163
aS'ghosts'
p164
aS'Lloyd Bridges'
p165
aS'ring'
p166
aS'network'
p167
aS'Holy'
p168
aS'dinosaur'
p169
aS'god'
p170
aS'tales'
p171
aS'William'
p172
aS'fellowship'
p173
aS'Lauren Bacall'
p174
aS'surprise'
p175
aS'Derek Jacobi'
p176
aS'Cuban'
p177
aS'projectionist'
p178
aS'University'
p179
aS'revenge'
p180
aS'Henry Koster'
p181
aS'struggle'
p182
aS'Ewen Bremner'
p183
aS'mistress'
p184
aS'abdicates'
p185
aS'Bibi Andersson'
p186
aS'days'
p187
aS'undercover'
p188
aS'musicians'
p189
aS'moving'
p190
aS'Antarctic'
p191
aS'Yoshiko Shinohara'
p192
aS'Depression'
p193
aS'Adolf'
p194
aS'Gennaro'
p195
aS'Frank Morgan'
p196
aS'Samuel L. Jackson'
p197
aS'Dennis Farina'
p198
aS'Terry Jones'
p199
aS'Richard Dreyfuss'
p200
aS'Alexandre Rodrigues'
p201
aS'force'
p202
aS'Monsters'
p203
aS'toy'
p204
aS'service'
p205
aS'Michael Cimino'
p206
aS'Edward Furlong'
p207
aS'Aleksandr Kaydanovskiy'
p208
aS'master'
p209
aS'John Ford'
p210
aS'murder'
p211
aS'Keanu Reeves'
p212
aS'Joe Pantoliano'
p213
aS'Ellen Burstyn'
p214
aS'Erich von Stroheim'
p215
aS'Robert Mitchum'
p216
aS'white'
p217
aS'distance'
p218
aS'Set'
p219
aS'Elizabeth Berridge'
p220
aS'guilt'
p221
aS'knights'
p222
aS'Biography'
p223
aS'screenplay'
p224
aS'bridge'
p225
aS'sees'
p226
aS'palace'
p227
aS'Chicago'
p228
aS'runner'
p229
aS'bank/train'
p230
aS'mind'
p231
aS'rat'
p232
aS'Animation'
p233
aS'Cary Grant'
p234
aS'Holly'
p235
aS'tells'
p236
aS'Lionel Barrymore'
p237
aS'Paul Thomas Anderson'
p238
aS'Victor Fleming'
p239
aS'Michael J. Fox'
p240
aS'Frodo'
p241
aS'forces'
p242
aS'Jean Arthur'
p243
aS'Dexter Fletcher'
p244
aS'Jones'
p245
aS'Akira Terao'
p246
aS'Knight'
p247
aS'Michael Gambon'
p248
aS'Isengard'
p249
aS'Side'
p250
aS'prostitute'
p251
aS'camp'
p252
aS'nighttime'
p253
aS'Veronica Cartwright'
p254
aS'River Phoenix'
p255
aS'Union'
p256
aS'random'
p257
aS'boyhood'
p258
aS'Willem Dafoe'
p259
aS'marketeer'
p260
aS'charity'
p261
aS'Mike Nichols'
p262
aS'Javier Bardem'
p263
aS'Janeiro'
p264
aS'Wai-keung Lau'
p265
aS'explain'
p266
aS'Darren Aronofsky'
p267
aS'S.H.I.E.L.D.'
p268
aS'Fred'
p269
aS'theme'
p270
aS'population'
p271
aS'Ed Harris'
p272
aS'James Cameron'
p273
aS'Michael Bates'
p274
aS'spirit'
p275
aS'Robin Williams'
p276
aS'Agent'
p277
aS'Rio'
p278
aS'seeks'
p279
aS'rival'
p280
aS'movement'
p281
aS'secretary'
p282
aS'Piper Laurie'
p283
aS'disaster'
p284
aS'observes'
p285
aS'Louis Wolheim'
p286
aS'Belle'
p287
aS'sensitivity'
p288
aS'Peter Weir'
p289
aS'allure'
p290
aS'Saruman'
p291
aS'corrupt'
p292
aS'John'
p293
aS'gladiator'
p294
aS'Horror'
p295
aS'reporter'
p296
aS'Barry Humphries'
p297
aS'prince'
p298
aS"Gavin O'Connor"
p299
aS'score'
p300
aS'discovers'
p301
aS'encounters'
p302
aS'pirate'
p303
aS'nature'
p304
aS'Jeff Bridges'
p305
aS'Paul Newman'
p306
aS'Howard Hawks'
p307
aS'Thora Birch'
p308
aS'Reginald Gardiner'
p309
aS'Nick Moran'
p310
aS'cop'
p311
aS'accident'
p312
aS'country'
p313
aS'adventurer'
p314
aS'adventures'
p315
aS'WWII'
p316
aS'faces'
p317
aS'Dustin Hoffman'
p318
aS'con'
p319
aS'Terry Gilliam'
p320
aS'Myrna Loy'
p321
aS'cryptography'
p322
aS'Hmong'
p323
aS'Michael Madsen'
p324
aS'Atticus'
p325
aS'basis'
p326
aS'union'
p327
aS'Pulp'
p328
aS'Stephen Rea'
p329
aS'Christopher'
p330
aS'incompetent'
p331
aS'Paulette Goddard'
p332
aS'life'
p333
aS'Gary Oldman'
p334
aS'families'
p335
aS'drugs'
p336
aS'Poland'
p337
aS'worker'
p338
aS'filmmaker'
p339
aS'kids'
p340
aS'Annette Bening'
p341
aS'child'
p342
aS'Michael Clarke Duncan'
p343
aS'Roy Scheider'
p344
aS'Linda Hamilton'
p345
aS'Dev Patel'
p346
aS'murders'
p347
aS'Danny Boyle'
p348
aS'procedure'
p349
aS'Andy Lau'
p350
aS'settles'
p351
aS'Gary Trousdale'
p352
aS'Nam'
p353
aS'player'
p354
aS'things'
p355
aS'Sharon Stone'
p356
aS'complex'
p357
aS'David Lean'
p358
aS'monarch'
p359
aS'Aragorn'
p360
aS'showing'
p361
aS'Kang-ho Song'
p362
aS'meets'
p363
aS'Stanley Kubrick'
p364
aS'VI'
p365
aS'Sergio Leone'
p366
aS'Christian Bale'
p367
aS'Giuseppe Tornatore'
p368
aS'workforce'
p369
aS'evil'
p370
aS'Angeles'
p371
aS'stiffs'
p372
aS'clownfish'
p373
aS'characters'
p374
aS'Christopher Nolan'
p375
aS'J.J.'
p376
aS'Chris Pine'
p377
aS'Jackie Gleason'
p378
aS'suffering'
p379
aS'Martin Stringer'
p380
aS'savings'
p381
aS'client'
p382
aS'mother'
p383
aS'operandi'
p384
aS'Dean DeBlois'
p385
aS'Sarah'
p386
aS'John Ridgely'
p387
aS'Russell'
p388
aS'sentence'
p389
aS'gods'
p390
aS'Salieri'
p391
aS'Capone'
p392
aS'Cambodia'
p393
aS'Crime'
p394
aS'victim'
p395
aS'yes'
p396
aS'Fernando Meirelles'
p397
aS'Traudl'
p398
aS'enters'
p399
aS'photographer'
p400
aS'Vivien Leigh'
p401
aS'teenager'
p402
aS'prison'
p403
aS'Philip'
p404
aS'humanity'
p405
aS'Payman Maadi'
p406
aS'James'
p407
aS'paratrooper'
p408
aS'Paul Rudd'
p409
aS'boxer'
p410
aS'Wing'
p411
aS'dreams'
p412
aS'apart'
p413
aS'amok'
p414
aS'gift'
p415
aS'hunt'
p416
aS'officer'
p417
aS'Ark'
p418
aS'Kowalski'
p419
aS'Helge'
p420
aS'right'
p421
aS'deal'
p422
aS'people'
p423
aS'toys'
p424
aS'City...'
p425
aS'Martin Sheen'
p426
aS'escape'
p427
aS'Alisa Freyndlikh'
p428
aS'Edinburgh'
p429
aS'Dae-Su'
p430
aS'Cuba'
p431
aS'J.J. Abrams'
p432
aS'companions'
p433
aS'convict'
p434
aS'Gandalf'
p435
aS'Anthony Hopkins'
p436
aS'Adil Hussain'
p437
aS'He'
p438
aS'Braddock'
p439
aS'Joseph Cotten'
p440
aS'Odile'
p441
aS'monsters'
p442
aS'cheating'
p443
aS'Millionaire'
p444
aS'Gran'
p445
aS'peer'
p446
aS'insanity'
p447
aS'bury'
p448
aS'trophy'
p449
aS'Retired'
p450
aS'diner'
p451
aS'cowboy'
p452
aS'Jack Hawkins'
p453
aS'dollars'
p454
aS'accepts'
p455
aS'F. Murray Abraham'
p456
aS'dinner'
p457
aS'banker'
p458
aS'companion.'
p459
aS'objectives'
p460
aS'Hong'
p461
aS'presence'
p462
aS'marshall'
p463
aS'brother-in-law'
p464
aS'bound'
p465
aS'son'
p466
aS'freshman'
p467
aS'Hye-jeong Kang'
p468
aS'dissenting'
p469
aS'Korean'
p470
aS'Sylvester Stallone'
p471
aS'deception'
p472
aS'fight'
p473
aS'Chun'
p474
aS'Kevin Bacon'
p475
aS'way'
p476
aS'war'
p477
aS'head'
p478
aS'amateur'
p479
aS'form'
p480
aS'differences'
p481
aS'barber'
p482
aS'heat'
p483
aS'dead'
p484
aS'syndicate'
p485
aS'Tom Hardy'
p486
aS'complications'
p487
aS'Jamie Foxx'
p488
aS'daddy'
p489
aS'temper'
p490
aS'Al Pacino'
p491
aS'Adenoid'
p492
aS'discovery.'
p493
aS'Stuart Rosenberg'
p494
aS'tournament'
p495
aS'suspicions'
p496
aS'Peter Lorre'
p497
aS'Claudette Colbert'
p498
aS'ship'
p499
aS'mole'
p500
aS'Francisco'
p501
aS'reality'
p502
aS'role'
p503
aS'Bette Davis'
p504
aS'Enzo Staiola'
p505
aS'brothers'
p506
aS'Roman Polanski'
p507
aS'Laurence Fishburne'
p508
aS'persistent'
p509
aS'Melbourne'
p510
aS'journey'
p511
aS'Earth'
p512
aS'persecution'
p513
aS'transfers'
p514
aS'Cary Elwes'
p515
aS'Sam Peckinpah'
p516
aS'Anthony Quinn'
p517
aS'American'
p518
aS'Second'
p519
aS'Richard Armitage'
p520
aS'classmate'
p521
aS'time'
p522
aS'Empire'
p523
aS'longshoreman'
p524
aS'Leonard Nimoy'
p525
aS'Torino'
p526
aS'leads'
p527
aS'Gotham'
p528
aS'bandits'
p529
aS'battle'
p530
aS'Indiana'
p531
aS'vet'
p532
aS'father'
p533
aS'Liv Ullmann'
p534
aS'charge'
p535
aS'veterans'
p536
aS'Philip Seymour Hoffman'
p537
aS'Joker'
p538
aS'turbulent'
p539
aS'Elaine'
p540
aS'Maggie Cheung'
p541
aS'Mack Swain'
p542
aS'Ayano Shiraishi'
p543
aS'level'
p544
aS'turns'
p545
aS'brother'
p546
aS'travels'
p547
aS'team'
p548
aS'George'
p549
aS'Richard Attenborough'
p550
aS'blade'
p551
aS'Romance'
p552
aS'heavyweight'
p553
aS'Heath Ledger'
p554
aS'Anthony Wong Chau-Sang'
p555
aS'Harold Ramis'
p556
aS'Patrick McGoohan'
p557
aS'Wolfgang'
p558
aS'jeopardy'
p559
aS'Mary McDonnell'
p560
aS'Elizabeth Taylor'
p561
aS'Kim Novak'
p562
aS'Guy Pearce'
p563
aS'Along'
p564
aS'Gabriel Byrne'
p565
aS'unsure'
p566
aS'Marcia Gay Harden'
p567
aS'water'
p568
aS'English'
p569
aS'temple.'
p570
aS'teaches'
p571
aS'teacher'
p572
aS'box'
p573
aS'boy'
p574
aS'crumbles'
p575
aS'redemption'
p576
aS'thirty'
p577
aS'freak.'
p578
aS'trial'
p579
aS'priceless'
p580
aS'teenage'
p581
aS'love'
p582
aS'Sci-Fi'
p583
aS'humour'
p584
aS'POWs'
p585
aS'When'
p586
aS'Robert Duvall'
p587
aS'modus'
p588
aS'ailing'
p589
aS'Daveigh Chase'
p590
aS'crisis'
p591
aS'working'
p592
aS'super'
p593
aS'memory'
p594
aS'Swan'
p595
aS'duality'
p596
aS'club'
p597
aS'Mount'
p598
aS'clue'
p599
aS'John Cazale'
p600
aS'effort'
p601
aS'Rebels'
p602
aS'Family'
p603
aS'mayhem'
p604
aS'German'
p605
aS'John McTiernan'
p606
aS'Dowd'
p607
aS'heart'
p608
aS'Peggy Dow'
p609
aS'figure'
p610
aS'Federal'
p611
aS'agent'
p612
aS'Kasi Lemmons'
p613
aS'Val Kilmer'
p614
aS'occur'
p615
aS'Paul Henreid'
p616
aS'winter'
p617
aS'Who'
p618
aS'Kate Winslet'
p619
aS'Nakatomi'
p620
aS'vital'
p621
aS'DeLarge'
p622
aS'Sam Neill'
p623
aS'explorer'
p624
aS'Margaretha Krook'
p625
aS'Ki-duk Kim'
p626
aS'birthday'
p627
aS'James Mason'
p628
aS'heroes'
p629
aS'murderess'
p630
aS'man'
p631
aS'Fury'
p632
aS'wheelchair'
p633
aS'tale'
p634
aS'perfection'
p635
aS'Curtis Hanson'
p636
aS'extractor'
p637
aS'Mississippi'
p638
aS'Gyunggi'
p639
aS'joins'
p640
aS'Hunting'
p641
aS'years'
p642
aS'White'
p643
aS'Bolivia'
p644
aS'Matt Damon'
p645
aS'police'
p646
aS'solace'
p647
aS'window'
p648
aS'suspicion'
p649
aS'World'
p650
aS'prisoners'
p651
aS'Cho..'
p652
aS'killer'
p653
aS'Enzo Cannavale'
p654
aS'Rome'
p655
aS'Gordon'
p656
aS'Normandy'
p657
aS'half'
p658
aS'Fritz Lang'
p659
aS'fisherman'
p660
aS'bowling'
p661
aS'Noah Emmerich'
p662
aS'Lew Ayres'
p663
aS'Eliot'
p664
aS'Communists'
p665
aS'Tony Leung Chiu Wai'
p666
aS'Emilia Fox'
p667
aS'Dude'
p668
aS'Bruno Ganz'
p669
aS'year'
p670
aS'girl'
p671
aS'Anne Baxter'
p672
aS'John Frankenheimer'
p673
aS'hacker'
p674
aS'Oskar'
p675
aS'space'
p676
aS'profit'
p677
aS'Claude Rains'
p678
aS'Corleone'
p679
aS'superiors'
p680
aS'theory'
p681
aS'million'
p682
aS'Florence Lee'
p683
aS'spies'
p684
aS'rebel'
p685
aS'Daniel Day-Lewis'
p686
aS'marine'
p687
aS'prospector'
p688
aS'card'
p689
aS'training'
p690
aS'Sidney Lumet'
p691
aS'Federation'
p692
aS'disillusionment'
p693
aS'transition'
p694
aS'tries'
p695
aS'turn'
p696
aS'place'
p697
aS'Grace Kelly'
p698
aS'John Gavin'
p699
aS'unborn'
p700
aS'view'
p701
aS'childhood'
p702
aS'J.D. Cannon'
p703
aS'motel'
p704
aS'Barbara Bel Geddes'
p705
aS'Stark'
p706
aS'Thomas Vinterberg'
p707
aS'Black'
p708
aS'carry'
p709
aS'Hollywood'
p710
aS'engineer'
p711
aS'city'
p712
aS'silent'
p713
aS'caught'
p714
aS'returns'
p715
aS'bounty'
p716
aS'Charles Laughton'
p717
aS'friend'
p718
aS'mining'
p719
aS'Alexandra Maria Lara'
p720
aS'Mozart'
p721
aS'humans'
p722
aS'Robert Cummings'
p723
aS'Jabba'
p724
aS'salesman/adjuster'
p725
aS'History'
p726
aS'Robert Rossen'
p727
aS'scraping'
p728
aS'recruit'
p729
aS'Lester'
p730
aS'future'
p731
aS'William Wyler'
p732
aS'Elijah Wood'
p733
aS'janitor'
p734
aS'Richard Kelly'
p735
aS'George Segal'
p736
aS'angel'
p737
aS'pro'
p738
aS'Al'
p739
aS'racetrack'
p740
aS'comedian'
p741
aS'Jewish'
p742
aS'warriors'
p743
aS'veteran'
p744
aS'take'
p745
aS'Irvin Kershner'
p746
aS'Hall'
p747
aS'urge'
p748
aS'pain'
p749
aS'Ray Milland'
p750
aS'tornado'
p751
aS'falls'
p752
aS'assault'
p753
aS'pair'
p754
aS'Marlene Dietrich'
p755
aS'Young-min Kim'
p756
aS'hardships'
p757
aS'Depression-era'
p758
aS'James Woods'
p759
aS'Vader'
p760
aS'Lee Van Cleef'
p761
aS'Viggo Mortensen'
p762
aS'detective'
p763
aS'jewelers'
p764
aS'show'
p765
aS'opportunist'
p766
aS'jewelery'
p767
aS'therapist'
p768
aS'Sulley'
p769
aS'hack'
p770
aS'corner'
p771
aS'Wants'
p772
aS'John Dall'
p773
aS'Thomas Bo Larsen'
p774
aS'crime'
p775
aS'Ethan Coen'
p776
aS'stand'
p777
aS'George C. Scott'
p778
aS'Thriller'
p779
aS'hostage'
p780
aS'Violence'
p781
aS'Catherine Keener'
p782
aS'Shirley MacLaine'
p783
aS'John Megna'
p784
aS'Archeologist'
p785
aS'Milos Forman'
p786
aS'Kong'
p787
aS'husband'
p788
aS'WW1'
p789
aS'gangster'
p790
aS'pre-revolution'
p791
aS'college'
p792
aS"Vincent D'Onofrio"
p793
aS'Stephen Chbosky'
p794
aS'Hynkel'
p795
aS'Berlin'
p796
aS'Ruth Gordon'
p797
aS'Ralph Fiennes'
p798
aS'parent'
p799
aS'U.S.'
p800
aS'killing'
p801
aS'Babbitt'
p802
aS'Michel Gondry'
p803
aS'impromptu'
p804
aS'Sharlto Copley'
p805
aS'Jennifer Connelly'
p806
aS'wanders'
p807
aS'Vera Miles'
p808
aS'priests'
p809
aS'monk'
p810
aS'millionaire'
p811
aS'tour'
p812
aS'senator'
p813
aS'railway'
p814
aS'utterance'
p815
aS'Sean Young'
p816
aS'Ewan McGregor'
p817
aS'Death'
p818
aS'madness'
p819
aS'Zachary Quinto'
p820
aS'Ben Affleck'
p821
aS'Ji-tae Yu'
p822
aS'Jack Nicholson'
p823
aS'Asghar Farhadi'
p824
aS'bizarre'
p825
aS'Joan Fontaine'
p826
aS'Midwest'
p827
aS'Frank Overton'
p828
aS'arts'
p829
aS'Klondike'
p830
aS'dictator'
p831
aS'informer'
p832
aS'Princess'
p833
aS'direction'
p834
aS'Audrey Hepburn'
p835
aS'Ernest Borgnine'
p836
aS'thousand'
p837
aS'tiger'
p838
aS'Laurence Olivier'
p839
aS'Agatha'
p840
aS'Action'
p841
aS'Deckard'
p842
aS'case'
p843
aS'Madhavan'
p844
aS'Michael Murphy'
p845
aS'cash'
p846
aS'cast'
p847
aS'tragedy'
p848
aS'Aamir Khan'
p849
aS'investigating'
p850
aS'Jessica Alba'
p851
aS'Alec Guinness'
p852
aS'commander'
p853
aS'middle'
p854
aS'Lunar'
p855
aS'floating'
p856
aS'Frank Miller'
p857
aS'different'
p858
aS'author'
p859
aS'media'
p860
aS'Keir Dullea'
p861
aS'mobster'
p862
aS'speech'
p863
aS'Mia Farrow'
p864
aS'shifty'
p865
aS'events'
p866
aS'week'
p867
aS'oil'
p868
aS'Robert Mulligan'
p869
aS'hunter'
p870
aS'nest'
p871
aS'driver'
p872
aS'II'
p873
aS'Inge Landgut'
p874
aS'delicate'
p875
aS'guardians'
p876
aS'James Garner'
p877
aS'Frank Capra'
p878
aS'theater'
p879
aS'Barrier'
p880
aS'revelations'
p881
aS'charges'
p882
aS'Karl Malden'
p883
aS'Edward Burns'
p884
aS'Sang-kyung Kim'
p885
aS'Loki'
p886
aS'Lianella Carell'
p887
aS'trains'
p888
aS'Nazi'
p889
aS'taxi'
p890
aS'Frank Darabont'
p891
aS'money'
p892
aS'Anatoliy Solonitsyn'
p893
aS'actress'
p894
aS'violent'
p895
aS'John Wayne'
p896
aS'socialite'
p897
aS'death'
p898
aS'lets'
p899
aS'Romulan'
p900
aS'grip'
p901
aS'Don Cheadle'
p902
aS'wife.'
p903
aS'rises'
p904
aS'rules'
p905
aS'Island'
p906
aS'Rupert Grint'
p907
aS'Grande'
p908
aS'Adolphe Menjou'
p909
aS"Beverly D'Angelo"
p910
aS'world'
p911
aS'railroad'
p912
aS'clan'
p913
aS'fortune'
p914
aS'stranger'
p915
aS'pounds'
p916
aS'Edward Norton'
p917
aS'buddies'
p918
aS'London'
p919
aS'robbery'
p920
aS'robbers'
p921
aS'Before'
p922
aS'doll'
p923
aS'West'
p924
aS'competition'
p925
aS'Ping Lam Siu'
p926
aS'Gary Cooper'
p927
aS'Don Taylor'
p928
aS'Dr.'
p929
aS'New'
p930
aS'informant'
p931
aS'Mary'
p932
aS'Vienna'
p933
aS'David Yates'
p934
aS'perverse'
p935
aS'memories'
p936
aS'Men'
p937
aS'Scarlett Johansson'
p938
aS'Hugo Weaving'
p939
aS'freed'
p940
aS'Wilson Yip'
p941
aS'power'
p942
aS'Vietnam'
p943
aS'island'
p944
aS'violence'
p945
aS'Dick Hogan'
p946
aS'Blanche'
p947
aS'Terminator'
p948
aS'neighbor'
p949
aS'assassin'
p950
aS'tribe'
p951
aS'Nicoletta Braschi'
p952
aS'statuette'
p953
aS'Sully Boyar'
p954
aS'widower'
p955
aS'homeless'
p956
aS'Jim Sheridan'
p957
aS'Rob Reiner'
p958
aS'legacy'
p959
aS'area'
p960
aS'totalitarian'
p961
aS'Ness'
p962
aS'Morgan Freeman'
p963
aS'expatriate'
p964
aS'Daniel Radcliffe'
p965
aS'survives'
p966
aS'tycoon'
p967
aS'Christoph Waltz'
p968
aS'wits'
p969
aS'Gollum'
p970
aS'suffers'
p971
aS'Isa Danieli'
p972
aS'Harry'
p973
aS'Philip King'
p974
aS'land.'
p975
aS'Henry Bergman'
p976
aS'flamboyant'
p977
aS'sleaze'
p978
aS'Century'
p979
aS'sleazy'
p980
aS'Roberto Benigni'
p981
aS'Gregory Peck'
p982
aS'gone'
p983
aS'Michael Biehn'
p984
aS'Gerard Butler'
p985
aS'USA'
p986
aS'deep'
p987
aS'general'
p988
aS'How'
p989
aS'lifetime'
p990
aS'deed'
p991
aS'Humanity'
p992
aS'film'
p993
aS'Clive Owen'
p994
aS'Tatsuya Nakadai'
p995
aS'Mary Gibbs'
p996
aS'Darth'
p997
aS'Francis Ford Coppola'
p998
aS'Dark'
p999
aS'Amadeus'
p1000
aS'mathematics'
p1001
aS'assassin.'
p1002
aS'Mary Astor'
p1003
aS'brash'
p1004
aS'Great'
p1005
aS'John Hurt'
p1006
aS'Alex'
p1007
aS'Charles Chaplin'
p1008
aS'Stanley Donen'
p1009
aS'Keith David'
p1010
aS'pool'
p1011
aS'assassins'
p1012
aS'Mexican'
p1013
aS'wife'
p1014
aS'Max von Sydow'
p1015
aS'Steve McQueen'
p1016
aS'neighbors'
p1017
aS'high-school-age'
p1018
aS'Tony Roberts'
p1019
aS'suburban'
p1020
aS'Paul Butcher'
p1021
aS'Renton'
p1022
aS'children'
p1023
aS'reluctant'
p1024
aS'Brown'
p1025
aS'apartment'
p1026
aS'former'
p1027
aS'safety'
p1028
aS'Doo-Man'
p1029
aS'activities'
p1030
aS'woman'
p1031
aS'returning'
p1032
aS'horror'
p1033
aS'Andy Wachowski'
p1034
aS'Alaska'
p1035
aS'psychologist'
p1036
aS'sons'
p1037
aS'Uma Thurman'
p1038
aS'Ridley Scott'
p1039
aS'John Sturges'
p1040
aS'Bonnie Bedelia'
p1041
aS'heist'
p1042
aS'manager'
p1043
aS'Toni Collette'
p1044
aS'Vito'
p1045
aS'Ring'
p1046
aS'neighborhood'
p1047
aS'Jason Flemyng'
p1048
aS'problem...'
p1049
aS'lawyer'
p1050
aS'Charlton Heston'
p1051
aS'turning'
p1052
aS'East'
p1053
aS'Shelley Duvall'
p1054
aS'creatures'
p1055
aS'Tom Skerritt'
p1056
aS'Korea'
p1057
aS'Janet Leigh'
p1058
aS'eminent'
p1059
aS'Angus Macfadyen'
p1060
aS'version'
p1061
aS'Kirk Douglas'
p1062
aS'nurse'
p1063
aS'Jonathan Demme'
p1064
aS'womb'
p1065
aS'tattoos'
p1066
aS'recruits'
p1067
aS'Faye Dunaway'
p1068
aS'Charlie'
p1069
aS'ballet'
p1070
aS'answers'
p1071
aS'Arthur'
p1072
aS'situation'
p1073
aS'John Fiedler'
p1074
aS'Tsutomu Tatsumi'
p1075
aS'Richard Marquand'
p1076
aS'Rutger Hauer'
p1077
aS'kissing'
p1078
aS'addictions'
p1079
aS'monk.'
p1080
aS'search'
p1081
aS'soldier'
p1082
aS'Robert Redford'
p1083
aS'advertising'
p1084
aS'action'
p1085
aS'Odette'
p1086
aS'Forrest'
p1087
aS'inspires'
p1088
aS'Prohibition-era'
p1089
aS'trainer'
p1090
aS'Robert Downey Jr.'
p1091
aS'family'
p1092
aS'Tom Cruise'
p1093
aS'America.'
p1094
aS'Richard White'
p1095
aS'captor'
p1096
aS'T-101'
p1097
aS'Robert Walker'
p1098
aS'Agnes Moorehead'
p1099
aS'takes'
p1100
aS'Brian De Palma'
p1101
aS'Neill Blomkamp'
p1102
aS'Film-Noir'
p1103
aS'John Savage'
p1104
aS'Connor'
p1105
aS'Orlando Bloom'
p1106
aS'Noriko Hidaka'
p1107
aS'teen'
p1108
aS'diamond'
p1109
aS'Candice Bergen'
p1110
aS'company'
p1111
aS'domination'
p1112
aS'Steven Spielberg'
p1113
aS'Frank Sinatra'
p1114
aS'town'
p1115
aS'Senate.'
p1116
aS'recall'
p1117
aS'policemen'
p1118
aS'patriarch'
p1119
aS'Coney'
p1120
aS'guards'
p1121
aS'Bill Murray'
p1122
aS'wrestler'
p1123
aS'Hitler'
p1124
aS'history'
p1125
aS'shark'
p1126
aS'Jason Robards'
p1127
aS'scam'
p1128
aS'William Sylvester'
p1129
aS'Shelley Winters'
p1130
aS'collision'
p1131
aS'Reginald VelJohnson'
p1132
aS'information'
p1133
aS'Burt Young'
p1134
aS'court'
p1135
aS'underwear.'
p1136
aS'acts'
p1137
aS'influences'
p1138
aS'Benicio Del Toro'
p1139
aS'Clark Gable'
p1140
aS'Lower'
p1141
aS'Ezra Miller'
p1142
aS'Jay Baruchel'
p1143
aS'Tom Hanks'
p1144
aS'adventure'
p1145
aS'refuse'
p1146
aS'Elizabeth McGovern'
p1147
aS'Terry George'
p1148
aS'Mexico'
p1149
aS'footsteps'
p1150
aS'Hugh Jackman'
p1151
aS'Lamberto Maggiorani'
p1152
aS'dragon'
p1153
aS'hobbit'
p1154
aS'Laurence Harvey'
p1155
aS'dream'
p1156
aS'Dobbs'
p1157
aS'What'
p1158
aS'help'
p1159
aS'hierarchy'
p1160
aS'mission'
p1161
aS'Jedi'
p1162
aS'scientist'
p1163
aS'John Carradine'
p1164
aS'existence'
p1165
aS'Leia'
p1166
aS'MIT'
p1167
aS'Benjamin'
p1168
aS'possessions'
p1169
aS'forebodings'
p1170
aS'assaulting'
p1171
aS'Adrien Brody'
p1172
aS'Gore Verbinski'
p1173
aS'John Wray'
p1174
aS'bout'
p1175
aS'Daryl Hannah'
p1176
aS'abandons'
p1177
aS'postwar'
p1178
aS'Michael'
p1179
aS'Denholm Elliott'
p1180
aS'Claudia Cardinale'
p1181
aS'Ralph Meeker'
p1182
aS'mystery'
p1183
aS'Edward G. Robinson'
p1184
aS'pregnant'
p1185
aS'truths'
p1186
aS'Scottish'
p1187
aS'fairy'
p1188
aS'Sport'
p1189
aS'friendship'
p1190
aS'Debbie Reynolds'
p1191
aS'breakdown'
p1192
aS'Zone'
p1193
aS'Gunderson'
p1194
aS'David Morse'
p1195
aS'Tyrone Power'
p1196
aS'persona'
p1197
aS'Virginia Cherrill'
p1198
aS'operation'
p1199
aS'insurance'
p1200
aS'flower'
p1201
aS'Michael Curtiz'
p1202
aS'alcohol'
p1203
aS'clandestine'
p1204
aS'I'
p1205
aS'Eight'
p1206
aS'Doom'
p1207
aS'Matthew Broderick'
p1208
aS'circumstance'
p1209
aS'Robert Zemeckis'
p1210
aS'Alfred Hitchcock'
p1211
aS'Plaza'
p1212
aS'Drama'
p1213
aS'Diane Keaton'
p1214
aS'beginning'
p1215
aS'Marlon Brando'
p1216
aS'launch'
p1217
aS'Martin Freeman'
p1218
aS'prejudice'
p1219
aS'investigates'
p1220
aS'undergo'
p1221
aS'co-operates'
p1222
aS'Marisa Berenson'
p1223
aS'girls'
p1224
aS'number'
p1225
aS'Indian'
p1226
aS'visions'
p1227
aS'M. Night Shyamalan'
p1228
aS'Geoffrey Rush'
p1229
aS'story'
p1230
aS'"'
p1231
aS'heads'
p1232
aS'family.'
p1233
aS'bookmakers'
p1234
aS'Christopher Carley'
p1235
aS'steals'
p1236
aS'scheme'
p1237
aS'aristocracy'
p1238
aS'ex-TV'
p1239
aS'ravings'
p1240
aS'relationship'
p1241
aS'hotel'
p1242
aS'park'
p1243
aS'part'
p1244
aS'kind'
p1245
aS'bride'
p1246
aS'Donnie Yen'
p1247
aS'Suzanne Pleshette'
p1248
aS'Mumbai'
p1249
aS'Jack Lemmon'
p1250
aS'Patrick Magee'
p1251
aS'B'
p1252
aS'Corey Feldman'
p1253
aS'paths'
p1254
aS'John Travolta'
p1255
aS'check'
p1256
aS'province'
p1257
aS'Min-sik Choi'
p1258
aS'towards'
p1259
aS'Adam Baldwin'
p1260
aS'Martins'
p1261
aS'eggs'
p1262
aS'sets'
p1263
aS'virus'
p1264
aS'Nathalie Boltt'
p1265
aS'plan'
p1266
aS'Grail'
p1267
aS'pittance'
p1268
aS'The'
p1269
aS'screenwriter'
p1270
aS'Martin Scorsese'
p1271
aS'Suraj Sharma'
p1272
aS'Albert Brooks'
p1273
aS'Robinson'
p1274
aS'rebels'
p1275
aS'Han'
p1276
aS'Woody Allen'
p1277
aS'Hill'
p1278
aS'Alexander Gould'
p1279
aS'NYPD'
p1280
aS'delinquent'
p1281
aS'justice'
p1282
aS'Lillian Gish'
p1283
aS'writer'
p1284
aS'paranoia'
p1285
aS'idiots'
p1286
aS'Lee Unkrich'
p1287
aS'Orson Welles'
p1288
aS'circle'
p1289
aS'giants'
p1290
aS'magicians'
p1291
aS'hit'
p1292
aS'Steve Buscemi'
p1293
aS'While'
p1294
aS'Peter Brocco'
p1295
aS'reporters'
p1296
aS'Connie Nielsen'
p1297
aS'Ellen Page'
p1298
aS'enemy'
p1299
aS'Raymond'
p1300
aS'Christopher Lloyd'
p1301
aS'witches'
p1302
aS'archaeologist'
p1303
aS'outlaw'
p1304
aS'insane'
p1305
aS'set'
p1306
aS'art'
p1307
aS'intelligence'
p1308
aS'lion'
p1309
aS'Shire'
p1310
aS'sea'
p1311
aS'Disgruntled'
p1312
aS'Mark Ruffalo'
p1313
aS'Ang Lee'
p1314
aS'learns'
p1315
aS'Joan Cusack'
p1316
aS'Lee Remick'
p1317
aS'Park'
p1318
aS'stowaway'
p1319
aS'Walter Connolly'
p1320
aS'Michelle Pfeiffer'
p1321
aS'conditions'
p1322
aS'corruption'
p1323
aS'King'
p1324
aS'Jason Cope'
p1325
aS'missing'
p1326
aS'Sareh Bayat'
p1327
aS'Tate Taylor'
p1328
aS'outfit'
p1329
aS'Harry Myers'
p1330
aS'Annie'
p1331
aS'Fred Zinnemann'
p1332
aS'Detective'
p1333
aS'Jack Oakie'
p1334
aS'restaurant'
p1335
aS'Carrie Henn'
p1336
aS'Henning Moritzen'
p1337
aS'Curran'
p1338
aS'connection'
p1339
aS'tightens'
p1340
aS'occurrences.'
p1341
aS'Guy Ritchie'
p1342
aS'finds'
p1343
aS'Teddy'
p1344
aS'community'
p1345
aS'dancer'
p1346
aS'Alison Crosbie'
p1347
aS'village'
p1348
aS'War'
p1349
aS'Giorgio Cantarini'
p1350
aS'publishing'
p1351
aS'suburbs'
p1352
aS'secret'
p1353
aS'manhunt'
p1354
aS'Carl'
p1355
aS'Leila Hatami'
p1356
aS'champion'
p1357
aS'cyborg'
p1358
aS'Allied'
p1359
aS'lives'
p1360
aS'stolen'
p1361
aS'Old'
p1362
aS'Chinese'
p1363
aS'Carrie Fisher'
p1364
aS'holocaust'
p1365
aS'governor'
p1366
aS'John Goodman'
p1367
aS'Akira Kurosawa'
p1368
aS'McCandless'
p1369
aS'Oliver Hirschbiegel'
p1370
aS'McClane'
p1371
aS'guide'
p1372
aS'flees'
p1373
aS'City'
p1374
aS'underground'
p1375
aS'embarks'
p1376
aS'Sean Bean'
p1377
aS'Dictator'
p1378
aS'facade'
p1379
aS'Luke'
p1380
aS'disappearance'
p1381
aS'Adventure'
p1382
aS'strangers'
p1383
aS'Federico Fellini'
p1384
aS'coma.'
p1385
aS'mountain'
p1386
aS'henchmen'
p1387
aS'Sigourney Weaver'
p1388
aS'uses'
p1389
aS'decency'
p1390
aS'Tim Roth'
p1391
aS'timid'
p1392
aS'task'
p1393
aS'spaceman'
p1394
aS'Haya Harareet'
p1395
aS'Holmes Osborne'
p1396
aS'Andie MacDowell'
p1397
aS'person'
p1398
aS'edge'
p1399
aS'Katharine Ross'
p1400
aS'POW'
p1401
aS'Gruber'
p1402
aS'Farley Granger'
p1403
aS'Jordan Nagai'
p1404
aS'Madre'
p1405
aS'shape'
p1406
aS'Reconstruction'
p1407
aS'mob'
p1408
aS'Comedy'
p1409
aS'Tony Curtis'
p1410
aS'Amity'
p1411
aS'cemetery'
p1412
aS'Tom Murray'
p1413
aS'parents'
p1414
aS'cub'
p1415
aS'Dana Andrews'
p1416
aS'Marine'
p1417
aS'Avengers'
p1418
aS'Talia Shire'
p1419
aS'Daniels'
p1420
aS'victims'
p1421
aS'They'
p1422
aS'Robert Shaw'
p1423
aS'Oh'
p1424
aS'couple'
p1425
aS'Roe-ha Kim'
p1426
aS'game'
p1427
aS'quest'
p1428
aS'bloody'
p1429
aS'wings'
p1430
aS'Kirk'
p1431
aS'George Kennedy'
p1432
aS'Tim Robbins'
p1433
aS'individuals'
p1434
aS'Brad Bird'
p1435
aS'pals'
p1436
aS'Monstropolis'
p1437
aS'Bruce Willis'
p1438
aS'Andy'
p1439
aS'Tim Allen'
p1440
aS'affects'
p1441
aS'decision'
p1442
aS'religion'
p1443
aS'Malcolm McDowell'
p1444
aS'Smaug'
p1445
aS'Hue'
p1446
aS'crooks'
p1447
aS'rug'
p1448
aS'Antonio'
p1449
aS'become'
p1450
aS'refuses'
p1451
aS'Bob'
p1452
aS'Martin Balsam'
p1453
aS'Viola Davis'
p1454
aS'Ron'
p1455
aS'Bilbo'
p1456
aS'militia'
p1457
aS'Jake Gyllenhaal'
p1458
aS'Dorothy'
p1459
aS'Captain'
p1460
aS'Leonardo DiCaprio'
p1461
aS'Row'
p1462
aS'ensue'
p1463
aS'Their'
p1464
aS'seasons'
p1465
aS'William H. Macy'
p1466
aS'apartments'
p1467
aS'Lewis Milestone'
p1468
aS'John Lasseter'
p1469
aS'John Cleese'
p1470
aS'Peter Finch'
p1471
aS'newsman'
p1472
aS'hapless'
p1473
aS'inept'
p1474
aS'Jane Darwell'
p1475
aS'slums'
p1476
aS'boys'
p1477
aS'Oliver Stone'
p1478
aS'Africa'
p1479
aS'planet'
p1480
aS'Marisa Tomei'
p1481
aS'defendant'
p1482
aS'Kar Wai Wong'
p1483
aS'aversion'
p1484
aS'Master'
p1485
aS'replicants'
p1486
aS'door.'
p1487
aS'influence'
p1488
aS'Rajkumar Hirani'
p1489
aS'To'
p1490
aS'Sierra'
p1491
aS'John Carpenter'
p1492
aS'troublemaker'
p1493
aS'Manhattan'
p1494
aS'Nazis'
p1495
aS'Marilyn Monroe'
p1496
aS'Commissioner'
p1497
aS'sullen'
p1498
aS'insomniac'
p1499
aS'TV'
p1500
aS'Max'
p1501
aS'politicians'
p1502
aS'department'
p1503
aS'Curtin'
p1504
aS'Paul Dano'
p1505
aS'Man'
p1506
aS'Bryce Dallas Howard'
p1507
aS"Ryan O'Neal"
p1508
aS'Peter Stormare'
p1509
aS'T.'
p1510
aS'meaning'
p1511
aS'Emmett'
p1512
aS'Craig Ferguson'
p1513
aS'sides'
p1514
aS'land'
p1515
aS'fighter'
p1516
aS'holes'
p1517
aS'Tricked'
p1518
aS'Ben Gazzara'
p1519
aS'Humphrey Bogart'
p1520
aS'rallies'
p1521
aS'Turner'
p1522
aS'rescues'
p1523
aS'Warsaw'
p1524
aS'wilderness.'
p1525
aS'Yeong-su Oh'
p1526
aS'Helena Bonham Carter'
p1527
aS'results'
p1528
aS'commoner'
p1529
aS'Bengal'
p1530
aS'alien'
p1531
aS'weatherman'
p1532
aS'Spock'
p1533
aS'infatuation'
p1534
aS'flashback'
p1535
aS'Clyde Bruckman'
p1536
aS'Jinpachi Nezu'
p1537
aS'detectives'
p1538
aS'H.A.L.'
p1539
aS'gold'
p1540
aS'daring'
p1541
aS'young'
p1542
aS'Gladys George'
p1543
aS'Anthony Perkins'
p1544
aS'Sefton'
p1545
aS'helps'
p1546
aS'stable'
p1547
aS'Tommy Lee Jones'
p1548
aS'Now'
p1549
aS'sent'
p1550
aS'Mrs.'
p1551
aS'Michael Mann'
p1552
aS'Thomas Mitchell'
p1553
aS'surgeon'
p1554
aS'notes'
p1555
aS'compassionate'
p1556
aS'Tanay Chheda'
p1557
aS'race'
p1558
aS'Coleen Gray'
p1559
aS'Cathy Moriarty'
p1560
aS'Skywalker'
p1561
aS'traveling'
p1562
aS'Ellen DeGeneres'
p1563
aS'Victor Jory'
p1564
aS'Joss Whedon'
p1565
aS'Lonely'
p1566
aS'plays'
p1567
aS'business'
p1568
aS'dealer'
p1569
aS'colonel'
p1570
aS'desperado'
p1571
aS'Joe Pesci'
p1572
aS'John Huston'
p1573
aS'Reef'
p1574
aS'America'
p1575
aS'Rusesabagina'
p1576
aS'body'
p1577
aS'Alida Valli'
p1578
aS'Light'
p1579
aS'Wilford Brimley'
p1580
aS'Tutsi'
p1581
aS'others'
p1582
aS'silent-film'
p1583
aS'Greed'
p1584
aS'Gene Kelly'
p1585
aS'great'
p1586
aS'survivor'
p1587
aS'Harrison Ford'
p1588
aS"Paige O'Hara"
p1589
aS'Stephen Baldwin'
p1590
aS'Arabia'
p1591
aS'implement'
p1592
aS'maker'
p1593
aS'Joel Coen'
p1594
aS'Mountain'
p1595
aS'Vincent Cassel'
p1596
aS'Vince Edwards'
p1597
aS'Emory'
p1598
aS'DuBois'
p1599
aS'confession'
p1600
aS'Nick'
p1601
aS'Yip'
p1602
aS'Carl Miller'
p1603
aS'Solo'
p1604
aS'Bob Gunton'
p1605
aS'David Carradine'
p1606
aS'Alec Cawthorne'
p1607
aS'Jeremy Irons'
p1608
aS'Sophie Marceau'
p1609
aS'examination'
p1610
aS'themselves'
p1611
aS'Matthew Modine'
p1612
aS'possession'
p1613
aS'Richard Basehart'
p1614
aS'imprisons'
p1615
aS'becomes'
p1616
aS'musician'
p1617
aS'Josh Brolin'
p1618
aS'Gump'
p1619
aS'rabbit'
p1620
aS'rivalry'
p1621
aS'women'
p1622
aS'account'
p1623
aS'crosses'
p1624
aS'animals'
p1625
aS'meek'
p1626
aS'Brad Pitt'
p1627
aS'Graham Chapman'
p1628
aS"Peter O'Toole"
p1629
aS'Leandro Firmino'
p1630
aS'Tony Kaye'
p1631
aS'Lundegaard'
p1632
aS'servants'
p1633
aS'Nevada'
p1634
aS'something'
p1635
aS'control'
p1636
aS'bent'
p1637
aS'escapes'
p1638
aS'process'
p1639
aS'Danny Lloyd'
p1640
aS'Mr.'
p1641
aS'Dorothy Comingore'
p1642
aS'ascension'
p1643
aS'Christmas'
p1644
aS'rape'
p1645
aS'Carrie-Anne Moss'
p1646
aS'Ka Tung Lam'
p1647
aS'Penelope Allen'
p1648
aS'boxing'
p1649
aS'Fred MacMurray'
p1650
aS'struggles'
p1651
aS'Beast'
p1652
aS'forest'
p1653
aS'Peter Jackson'
p1654
aS'restitution'
p1655
aS'intelligent'
p1656
aS'George Sanders'
p1657
aS'Tim Holt'
p1658
aS'aspiring'
p1659
aS'farm'
p1660
aS'Roman'
p1661
aS'Hermione'
p1662
aS'Gwyneth Paltrow'
p1663
aS'Clint Eastwood'
p1664
aS'Chan-wook Park'
p1665
aS'Marlowe'
p1666
aS'S.O.S.'
p1667
aS'gone.'
p1668
aS'Joon-ho Bong'
p1669
aS'lines'
p1670
aS'chief'
p1671
aS'stakes'
p1672
aS'Tom Hulce'
p1673
aS'move'
p1674
aS'Lou Romano'
p1675
aS'wilds'
p1676
aS'Nick Nolte'
p1677
aS'tyrant'
p1678
aS'galaxy'
p1679
aS'gunslinger'
p1680
aS'Otto Preminger'
p1681
aS'Mila Kunis'
p1682
aS'criminal'
p1683
aS'blackmail'
p1684
aS'Joaquin Phoenix'
p1685
aS'Irrfan Khan'
p1686
aS'Miami'
p1687
aS'day'
p1688
aS'Jared Leto'
p1689
aS'San'
p1690
aS'Sam'
p1691
aS'Laura Dern'
p1692
aS'truth'
p1693
aS'beneath'
p1694
aS'seniors'
p1695
aS'Willard'
p1696
aS'society'
p1697
aS'witness'
p1698
aS'rep'
p1699
aS'Sauron'
p1700
aS'James Earl Jones'
p1701
aS'Chris Sarandon'
p1702
aS'Landings'
p1703
aS'Ian McKellen'
p1704
aS'Bee Vang'
p1705
aS'Saurabh Shukla'
p1706
aS'Alvy'
p1707
aS'princess'
p1708
aS'allies'
p1709
aS'Marshal'
p1710
aS'Isao Takahata'
p1711
aS'south'
p1712
aS'obscurity'
p1713
aS'Roger Allers'
p1714
aS'Lea Thompson'
p1715
aS'scene'
p1716
aS'owner'
p1717
aS'decides'
p1718
aS'quality'
p1719
aS'Iran'
p1720
aS'Tom Hooper'
p1721
aS'attack'
p1722
aS'Bryan Singer'
p1723
aS'Marge'
p1724
aS'neo-nazi'
p1725
aS'Bride'
p1726
aS'Charles Martin Smith'
p1727
aS'Andrey Tarkovskiy'
p1728
aS'institution'
p1729
aS'Valeria Golino'
p1730
aS'Eli Wallach'
p1731
aS'William Holden'
p1732
aS'patients'
p1733
aS'Glen Cavender'
p1734
aS'loves'
p1735
aS'lover'
p1736
aS'Mel Gibson'
p1737
aS'Lime'
p1738
aS'T-1000'
p1739
aS'Sydney'
p1740
aS'Jim Carrey'
p1741
aS'Horcruxes'
p1742
aS'Singer'
p1743
aS'horrors'
p1744
aS'Lee J. Cobb'
p1745
aS'Ruth Roman'
p1746
aS'border'
p1747
aS'Batman'
p1748
aS'admittance'
p1749
aS'Kareena Kapoor'
p1750
aS'soap'
p1751
aS'PoW'
p1752
aS'Gary Lockwood'
p1753
aS'vengeance'
p1754
aS'eight'
p1755
aS'Gloria Swanson'
p1756
aS'prisoner'
p1757
aS'payment'
p1758
aS'spirits'
p1759
aS'volunteers'
p1760
aS'disease'
p1761
aS'businessman'
p1762
aS'affair'
p1763
aS'vacancy'
p1764
aS'Russell Crowe'
p1765
aS'soldiers'
p1766
aS'asylum'
p1767
aS'Barry Levinson'
p1768
aS'employer'
p1769
aS'Julianne Moore'
p1770
aS'York'
p1771
aS'Michael Caine'
p1772
aS'thousands'
p1773
aS'Mandy Patinkin'
p1774
aS'inferior'
p1775
aS'Shadows'
p1776
aS'Xolani Mali'
p1777
aS'Eric Idle'
p1778
aS'means'
p1779
aS'ones'
p1780
aS'Mark Hamill'
p1781
aS'Christopher Plummer'
p1782
aS'wise'
p1783
aS'entity'
p1784
aS'ghetto'
p1785
aS'DeLorean'
p1786
aS'Fredric March'
p1787
aS'rescuing'
p1788
aS'teams'
p1789
aS'bathhouse'
p1790
aS'juror'
p1791
aS"Barbara O'Neil"
p1792
aS'marries'
p1793
aS'widow'
p1794
aS'Burnham'
p1795
aS'conform'
p1796
aS'Lake'
p1797
aS'Sr.'
p1798
aS'immigrant'
p1799
aS'computer'
p1800
aS'Chris Elliott'
p1801
aS'closer'
p1802
aS'Arnold Schwarzenegger'
p1803
aS'reform'
p1804
aS'Britain'
p1805
aS'genius'
p1806
aS'state'
p1807
aS'Michael Berryman'
p1808
aS'John Cassavetes'
p1809
aS'Laura Linney'
p1810
aS'job'
p1811
aS'Ron Howard'
p1812
aS'group'
p1813
aS'Emile Hirsch'
p1814
aS'P.'
p1815
aS'FBI'
p1816
aS'career'
p1817
aS'Sam Mendes'
p1818
aS'Donna Reed'
p1819
aS'supplants'
p1820
aS'drug'
p1821
aS'Judy Garland'
p1822
aS'Woody'
p1823
aS'Mafia'
p1824
aS'Franklin J. Schaffner'
p1825
aS'invites'
p1826
aS'Ray Liotta'
p1827
aS'Simon Yam'
p1828
aS'Los'
p1829
aS'Robin Wright'
p1830
aS'Music'
p1831
aS'news'
p1832
aS'confronts'
p1833
aS'William Friedkin'
p1834
aS'Jodie Foster'
p1835
aS'outlaws'
p1836
aS'gaze'
p1837
aS'kitchen'
p1838
aS'Haley Joel Osment'
p1839
aS'circus'
p1840
aS'skinhead'
p1841
aS'Dent'
p1842
aS'ridden'
p1843
aS'Hobbit'
p1844
aS'Richard Burton'
p1845
aS'Force'
p1846
aS'Tom Berenger'
p1847
aS'appearance'
p1848
aS'Eddie Albert'
p1849
aS'captors'
p1850
aS'surface'
p1851
aS'Imperial'
p1852
aS'Sally Field'
p1853
aS'adultery'
p1854
aS'partner'
p1855
aS'Viking'
p1856
aS'terrorist'
p1857
aS'yuppie'
p1858
aS'romance'
p1859
aS'strange'
p1860
aS'Karen Allen'
p1861
aS'party'
p1862
aS'gets'
p1863
aS'kidnapping'
p1864
aS'slave'
p1865
aS'promoters'
p1866
aS'Chris Evans'
p1867
aS'student'
p1868
aS'identity'
p1869
aS'destruction'
p1870
aS'center'
p1871
aS'Susan Egan'
p1872
aS'Peter Sellers'
p1873
aS'Fantasy'
p1874
aS'command'
p1875
aS'Vittorio De Sica'
p1876
aS'position'
p1877
aS'Aaron Eckhart'
p1878
aS'moments'
p1879
aS'executive'
p1880
aS'Munny'
p1881
aS'Tramp'
p1882
aS'Marion Mack'
p1883
aS'Tahoe'
p1884
aS'Evan Rachel Wood'
p1885
aS'rest'
p1886
aS'graduate'
p1887
aS'Be'
p1888
aS'Hutu'
p1889
aS'Hutt'
p1890
aS'point'
p1891
aS'lake'
p1892
aS'Hilary Swank'
p1893
aS'balloons'
p1894
aS'match'
p1895
aS'stumbles'
p1896
aS'Mickey Rourke'
p1897
aS'government'
p1898
aS'Joel Edgerton'
p1899
aS'Ulrich Matthes'
p1900
aS'messiah'
p1901
aS'Kevin Costner'
p1902
aS'fearsome'
p1903
aS'gambling'
p1904
aS'loss'
p1905
aS'renegade'
p1906
aS'lost'
p1907
aS'clown'
p1908
aS'loses'
p1909
aS'controllers'
p1910
aS'Walter Huston'
p1911
aS'Henry Fonda'
p1912
aS'works'
p1913
aS'refugees'
p1914
aS'Robby Benson'
p1915
aS'Giulietta Masina'
p1916
aS'Rwanda'
p1917
aS'Finch'
p1918
aS'home'
p1919
aS'empire'
p1920
aS'scarer'
p1921
aS'happens'
p1922
aS'lead'
p1923
aS'Billy Crystal'
p1924
aS'Alzheimer'
p1925
aS'bosses'
p1926
aS'Steven Bauer'
p1927
aS'Ray Bolger'
p1928
aS'George Roy Hill'
p1929
aS'stage'
p1930
aS'throne'
p1931
aS'sister'
p1932
aS'freedom'
p1933
aS'US'
p1934
aS'Gale'
p1935
aS'carries'
p1936
aS'Americans'
p1937
aS'more..'
p1938
aS'Hayao Miyazaki'
p1939
aS'Japan'
p1940
aS'emperor'
p1941
aS'executives'
p1942
aS'cadet'
p1943
aS'alliance'
p1944
aS'wilderness'
p1945
aS'Sophie Okonedo'
p1946
aS'brands'
p1947
aS'champ'
p1948
aS'Scientists'
p1949
aS'fraud'
p1950
aS'Ian Holm'
p1951
aS'Covenant'
p1952
aS'Mountains'
p1953
aS'utopias'
p1954
aS'Crooks'
p1955
aS'Upon'
p1956
aS'proprietor'
p1957
aS'Joseph Gordon-Levitt'
p1958
aS'introvert'
p1959
aS'California'
p1960
aS'ditsy'
p1961
aS'Josephine Hull'
p1962
aS'brand'
p1963
aS'construction'
p1964
aS'remote'
p1965
aS'tactics'
p1966
aS'Jenny'
p1967
aS'Ulrich Thomsen'
p1968
aS'Wendell Corey'
p1969
aS'Colin Firth'
p1970
aS'Walt'
p1971
aS'cruel'
p1972
aS'convince'
p1973
aS'Jonny Lee Miller'
p1974
aS'heiress'
p1975
aS'problem'
p1976
aS'Lebowski'
p1977
aS'Elia Kazan'
p1978
aS'Ben Kingsley'
p1979
aS'Kevin Spacey'
p1980
aS'recounts'
p1981
aS'Antonella Attili'
p1982
aS'enlists'
p1983
aS'Gerry Robert Byrne'
p1984
aS'Sean Penn'
p1985
aS'I.R.A.'
p1986
aS'boot'
p1987
aS'book'
p1988
aS'illusion'
p1989
aS'David Fincher'
p1990
aS'star'
p1991
aS'Jeff Goldblum'
p1992
aS'living'
p1993
aS'class'
p1994
aS'Schindler'
p1995
aS'chance'
p1996
aS'Tom Sizemore'
p1997
aS'friends'
p1998
aS'Musical'
p1999
aS'South'
p2000
aS'Robert De Niro'
p2001
aS'Pete Docter'
p2002
aS'Sparrow'
p2003
aS'Ellen Widmann'
p2004
aS'Sean Connery'
p2005
aS'Toshiyuki Amagasa'
p2006
aS'Elwood'
p2007
aS'cartel'
p2008
aS'biotechnology'
p2009
a.