(dp0
I0
(lp1
S'Crime'
p2
aS'Drama'
p3
asI1
(lp4
S'Crime'
p5
aS'Drama'
p6
asI2
(lp7
S'Crime'
p8
aS'Drama'
p9
asI3
(lp10
S'Crime'
p11
aS'Thriller'
p12
asI4
(lp13
S'Adventure'
p14
aS'Western'
p15
asI5
(lp16
S'Drama'
p17
asI6
(lp18
S'Action'
p19
aS'Crime'
p20
aS'Drama'
p21
asI7
(lp22
S'Biography'
p23
aS'Drama'
p24
aS'History'
p25
asI8
(lp26
S'Action'
p27
aS'Adventure'
p28
aS'Fantasy'
p29
asI9
(lp30
S'Drama'
p31
asI10
(lp32
S'Action'
p33
aS'Adventure'
p34
aS'Sci-Fi'
p35
asI11
(lp36
S'Action'
p37
aS'Adventure'
p38
aS'Fantasy'
p39
asI12
(lp40
S'Drama'
p41
asI13
(lp42
S'Action'
p43
aS'Adventure'
p44
aS'Mystery'
p45
asI14
(lp46
S'Biography'
p47
aS'Crime'
p48
aS'Drama'
p49
asI15
(lp50
S'Action'
p51
aS'Adventure'
p52
aS'Fantasy'
p53
asI16
(lp54
S'Drama'
p55
aS'Romance'
p56
asI17
(lp57
S'Action'
p58
aS'Adventure'
p59
aS'Sci-Fi'
p60
asI18
(lp61
S'Action'
p62
aS'Adventure'
p63
aS'Fantasy'
p64
asI19
(lp65
S'Crime'
p66
aS'Drama'
p67
asI20
(lp68
S'Crime'
p69
aS'Mystery'
p70
aS'Thriller'
p71
asI21
(lp72
S'Crime'
p73
aS'Drama'
p74
aS'Thriller'
p75
asI22
(lp76
S'Adventure'
p77
aS'Western'
p78
asI23
(lp79
S'Drama'
p80
aS'Romance'
p81
aS'War'
p82
asI24
(lp83
S'Crime'
p84
aS'Mystery'
p85
aS'Thriller'
p86
asI25
(lp87
S'Action'
p88
aS'Adventure'
p89
asI26
(lp90
S'Mystery'
p91
aS'Thriller'
p92
asI27
(lp93
S'Drama'
p94
aS'Family'
p95
aS'Fantasy'
p96
asI28
(lp97
S'Horror'
p98
aS'Mystery'
p99
aS'Thriller'
p100
asI29
(lp101
S'Drama'
p102
aS'Film-Noir'
p103
asI30
(lp104
S'Crime'
p105
aS'Drama'
p106
asI31
(lp107
S'Mystery'
p108
aS'Thriller'
p109
asI32
(lp110
S'Drama'
p111
aS'War'
p112
asI33
(lp113
S'Action'
p114
aS'Sci-Fi'
p115
aS'Thriller'
p116
asI34
(lp117
S'Action'
p118
aS'Drama'
p119
aS'War'
p120
asI35
(lp121
S'Comedy'
p122
aS'War'
p123
asI36
(lp124
S'Comedy'
p125
aS'Drama'
p126
aS'Romance'
p127
asI37
(lp128
S'Horror'
p129
aS'Sci-Fi'
p130
asI38
(lp131
S'Action'
p132
aS'Adventure'
p133
aS'Mystery'
p134
asI39
(lp135
S'Animation'
p136
aS'Adventure'
p137
aS'Family'
p138
asI40
(lp139
S'Comedy'
p140
aS'Drama'
p141
asI41
(lp142
S'Adventure'
p143
aS'Crime'
p144
aS'Drama'
p145
asI42
(lp146
S'Drama'
p147
aS'Mystery'
p148
asI43
(lp149
S'Adventure'
p150
aS'Comedy'
p151
aS'Sci-Fi'
p152
asI44
(lp153
S'Horror'
p154
aS'Mystery'
p155
asI45
(lp156
S'Action'
p157
aS'Crime'
p158
aS'Thriller'
p159
asI46
(lp160
S'Biography'
p161
aS'Drama'
p162
aS'History'
p163
asI47
(lp164
S'Comedy'
p165
aS'Drama'
p166
aS'Romance'
p167
asI48
(lp168
S'Crime'
p169
aS'Thriller'
p170
asI49
(lp171
S'Crime'
p172
aS'Drama'
p173
aS'Film-Noir'
p174
asI50
(lp175
S'Mystery'
p176
aS'Romance'
p177
aS'Thriller'
p178
asI51
(lp179
S'Drama'
p180
aS'War'
p181
asI52
(lp182
S'Drama'
p183
asI53
(lp184
S'Crime'
p185
aS'Drama'
p186
asI54
(lp187
S'Crime'
p188
aS'Drama'
p189
aS'Film-Noir'
p190
asI55
(lp191
S'Action'
p192
aS'Adventure'
p193
aS'Sci-Fi'
p194
asI56
(lp195
S'Animation'
p196
aS'Adventure'
p197
aS'Comedy'
p198
asI57
(lp199
S'Crime'
p200
aS'Drama'
p201
aS'Fantasy'
p202
asI58
(lp203
S'Action'
p204
aS'Adventure'
p205
aS'Drama'
p206
asI59
(lp207
S'Crime'
p208
aS'Drama'
p209
aS'Sci-Fi'
p210
asI60
(lp211
S'Comedy'
p212
aS'Drama'
p213
aS'War'
p214
asI61
(lp215
S'Drama'
p216
aS'Mystery'
p217
aS'Thriller'
p218
asI62
(lp219
S'Adventure'
p220
aS'Biography'
p221
aS'Drama'
p222
asI63
(lp223
S'Crime'
p224
aS'Drama'
p225
aS'Mystery'
p226
asI64
(lp227
S'Crime'
p228
aS'Thriller'
p229
asI65
(lp230
S'Drama'
p231
asI66
(lp232
S'Film-Noir'
p233
aS'Mystery'
p234
aS'Thriller'
p235
asI67
(lp236
S'Drama'
p237
asI68
(lp238
S'Action'
p239
aS'Adventure'
p240
aS'Drama'
p241
asI69
(lp242
S'Animation'
p243
aS'Adventure'
p244
aS'Drama'
p245
asI70
(lp246
S'Drama'
p247
aS'Romance'
p248
aS'Sci-Fi'
p249
asI71
(lp250
S'Crime'
p251
aS'Drama'
p252
asI72
(lp253
S'Action'
p254
aS'Adventure'
p255
aS'Fantasy'
p256
asI73
(lp257
S'Drama'
p258
aS'War'
p259
asI74
(lp260
S'Crime'
p261
aS'Drama'
p262
aS'Mystery'
p263
asI75
(lp264
S'Action'
p265
aS'Biography'
p266
aS'Drama'
p267
asI76
(lp268
S'Crime'
p269
aS'Drama'
p270
aS'Mystery'
p271
asI77
(lp272
S'Drama'
p273
aS'Mystery'
p274
aS'Thriller'
p275
asI78
(lp276
S'Comedy'
p277
aS'Musical'
p278
aS'Romance'
p279
asI79
(lp280
S'Adventure'
p281
aS'Comedy'
p282
aS'Fantasy'
p283
asI80
(lp284
S'Comedy'
p285
asI81
(lp286
S'Crime'
p287
aS'Drama'
p288
asI82
(lp289
S'Biography'
p290
aS'Drama'
p291
aS'Music'
p292
asI83
(lp293
S'Adventure'
p294
aS'Mystery'
p295
aS'Sci-Fi'
p296
asI84
(lp297
S'Drama'
p298
asI85
(lp299
S'Comedy'
p300
aS'Crime'
p301
aS'Drama'
p302
asI86
(lp303
S'Western'
p304
asI87
(lp305
S'Comedy'
p306
aS'Drama'
p307
aS'Romance'
p308
asI88
(lp309
S'Action'
p310
aS'Adventure'
p311
asI89
(lp312
S'Biography'
p313
aS'Drama'
p314
aS'Sport'
p315
asI90
(lp316
S'Adventure'
p317
aS'Drama'
p318
aS'History'
p319
asI91
(lp320
S'Drama'
p321
aS'Mystery'
p322
asI92
(lp323
S'Animation'
p324
aS'Drama'
p325
aS'War'
p326
asI93
(lp327
S'Action'
p328
aS'Thriller'
p329
asI94
(lp330
S'Action'
p331
aS'Adventure'
p332
aS'Crime'
p333
asI95
(lp334
S'Drama'
p335
asI96
(lp336
S'Crime'
p337
aS'Thriller'
p338
asI97
(lp339
S'Biography'
p340
aS'Drama'
p341
aS'History'
p342
asI98
(lp343
S'Adventure'
p344
aS'Drama'
p345
aS'History'
p346
asI99
(lp347
S'Drama'
p348
asI100
(lp349
S'Animation'
p350
aS'Adventure'
p351
aS'Comedy'
p352
asI101
(lp353
S'Animation'
p354
aS'Adventure'
p355
aS'Comedy'
p356
asI102
(lp357
S'Crime'
p358
aS'Drama'
p359
asI103
(lp360
S'Biography'
p361
aS'Drama'
p362
asI104
(lp363
S'Action'
p364
aS'Crime'
p365
aS'Drama'
p366
asI105
(lp367
S'Action'
p368
aS'Adventure'
p369
aS'Comedy'
p370
asI106
(lp371
S'Crime'
p372
aS'Drama'
p373
aS'Film-Noir'
p374
asI107
(lp375
S'Drama'
p376
aS'Sci-Fi'
p377
aS'Thriller'
p378
asI108
(lp379
S'Drama'
p380
aS'Mystery'
p381
aS'Thriller'
p382
asI109
(lp383
S'Comedy'
p384
aS'Drama'
p385
aS'Family'
p386
asI110
(lp387
S'Drama'
p388
asI111
(lp389
S'Crime'
p390
aS'Drama'
p391
aS'Thriller'
p392
asI112
(lp393
S'Crime'
p394
aS'Drama'
p395
asI113
(lp396
S'Action'
p397
aS'Drama'
p398
aS'War'
p399
asI114
(lp400
S'Comedy'
p401
aS'Crime'
p402
asI115
(lp403
S'Crime'
p404
aS'Film-Noir'
p405
aS'Thriller'
p406
asI116
(lp407
S'Drama'
p408
aS'War'
p409
asI117
(lp410
S'Crime'
p411
aS'Drama'
p412
asI118
(lp413
S'Adventure'
p414
aS'Comedy'
p415
aS'Family'
p416
asI119
(lp417
S'Crime'
p418
aS'Thriller'
p419
asI120
(lp420
S'Crime'
p421
aS'Drama'
p422
aS'Thriller'
p423
asI121
(lp424
S'Comedy'
p425
aS'Romance'
p426
asI122
(lp427
S'Crime'
p428
aS'Thriller'
p429
asI123
(lp430
S'Crime'
p431
aS'Film-Noir'
p432
aS'Thriller'
p433
asI124
(lp434
S'Adventure'
p435
aS'Horror'
p436
aS'Thriller'
p437
asI125
(lp438
S'Biography'
p439
aS'Crime'
p440
aS'Drama'
p441
asI126
(lp442
S'Drama'
p443
aS'Mystery'
p444
aS'Thriller'
p445
asI127
(lp446
S'Action'
p447
aS'Drama'
p448
aS'War'
p449
asI128
(lp450
S'Horror'
p451
aS'Mystery'
p452
aS'Sci-Fi'
p453
asI129
(lp454
S'Crime'
p455
aS'Drama'
p456
asI130
(lp457
S'Adventure'
p458
aS'Biography'
p459
aS'Crime'
p460
asI131
(lp461
S'Action'
p462
asI132
(lp463
S'Drama'
p464
aS'Western'
p465
asI133
(lp466
S'Adventure'
p467
aS'Family'
p468
aS'Fantasy'
p469
asI134
(lp470
S'Drama'
p471
asI135
(lp472
S'Biography'
p473
aS'Drama'
p474
aS'History'
p475
asI136
(lp476
S'Action'
p477
aS'Crime'
p478
aS'Thriller'
p479
asI137
(lp480
S'Drama'
p481
aS'Sport'
p482
asI138
(lp483
S'Comedy'
p484
aS'Drama'
p485
aS'Romance'
p486
asI139
(lp487
S'Drama'
p488
aS'Romance'
p489
aS'War'
p490
asI140
(lp491
S'Drama'
p492
asI141
(lp493
S'Drama'
p494
aS'Romance'
p495
aS'Thriller'
p496
asI142
(lp497
S'Animation'
p498
aS'Family'
p499
aS'Fantasy'
p500
asI143
(lp501
S'Adventure'
p502
aS'Biography'
p503
aS'Drama'
p504
asI144
(lp505
S'Action'
p506
aS'Fantasy'
p507
aS'Thriller'
p508
asI145
(lp509
S'Comedy'
p510
asI146
(lp511
S'Animation'
p512
aS'Adventure'
p513
aS'Comedy'
p514
asI147
(lp515
S'Animation'
p516
aS'Adventure'
p517
aS'Comedy'
p518
asI148
(lp519
S'Crime'
p520
aS'Mystery'
p521
aS'Thriller'
p522
asI149
(lp523
S'Biography'
p524
aS'Drama'
p525
aS'History'
p526
asI150
(lp527
S'Drama'
p528
asI151
(lp529
S'Crime'
p530
aS'Film-Noir'
p531
aS'Mystery'
p532
asI152
(lp533
S'Drama'
p534
aS'Film-Noir'
p535
aS'Thriller'
p536
asI153
(lp537
S'Drama'
p538
asI154
(lp539
S'Action'
p540
aS'Sci-Fi'
p541
asI155
(lp542
S'Action'
p543
aS'Adventure'
p544
aS'Drama'
p545
asI156
(lp546
S'Drama'
p547
aS'Sport'
p548
asI157
(lp549
S'Adventure'
p550
aS'Drama'
p551
asI158
(lp552
S'Drama'
p553
aS'Romance'
p554
aS'War'
p555
asI159
(lp556
S'Comedy'
p557
aS'Drama'
p558
aS'Fantasy'
p559
asI160
(lp560
S'Drama'
p561
aS'Mystery'
p562
aS'Sci-Fi'
p563
asI161
(lp564
S'Mystery'
p565
aS'Sci-Fi'
p566
aS'Thriller'
p567
asI162
(lp568
S'Crime'
p569
aS'Drama'
p570
asI163
(lp571
S'Animation'
p572
aS'Comedy'
p573
aS'Drama'
p574
asI164
(lp575
S'Drama'
p576
aS'Mystery'
p577
aS'Thriller'
p578
asI165
(lp579
S'Drama'
p580
asI166
(lp581
S'Biography'
p582
aS'Drama'
p583
aS'History'
p584
asI167
(lp585
S'Crime'
p586
aS'Film-Noir'
p587
aS'Thriller'
p588
asI168
(lp589
S'Comedy'
p590
aS'Drama'
p591
aS'Romance'
p592
asI169
(lp593
S'Biography'
p594
aS'Drama'
p595
asI170
(lp596
S'Adventure'
p597
aS'Comedy'
p598
aS'Family'
p599
asI171
(lp600
S'Adventure'
p601
aS'Fantasy'
p602
asI172
(lp603
S'Adventure'
p604
aS'Drama'
p605
aS'Fantasy'
p606
asI173
(lp607
S'Drama'
p608
aS'Sport'
p609
asI174
(lp610
S'Comedy'
p611
aS'Drama'
p612
asI175
(lp613
S'Drama'
p614
aS'Romance'
p615
aS'Thriller'
p616
asI176
(lp617
S'Drama'
p618
asI177
(lp619
S'Drama'
p620
aS'Sport'
p621
asI178
(lp622
S'Crime'
p623
aS'Drama'
p624
aS'Mystery'
p625
asI179
(lp626
S'Drama'
p627
aS'Mystery'
p628
aS'Romance'
p629
asI180
(lp630
S'Horror'
p631
aS'Thriller'
p632
asI181
(lp633
S'Western'
p634
asI182
(lp635
S'Drama'
p636
aS'Romance'
p637
aS'Western'
p638
asI183
(lp639
S'Crime'
p640
aS'Drama'
p641
aS'Thriller'
p642
asI184
(lp643
S'Comedy'
p644
aS'Drama'
p645
aS'Thriller'
p646
asI185
(lp647
S'Adventure'
p648
aS'Drama'
p649
aS'Romance'
p650
asI186
(lp651
S'Mystery'
p652
aS'Thriller'
p653
asI187
(lp654
S'Adventure'
p655
aS'Drama'
p656
aS'Fantasy'
p657
asI188
(lp658
S'Biography'
p659
aS'Drama'
p660
aS'Thriller'
p661
asI189
(lp662
S'Crime'
p663
aS'Mystery'
p664
aS'Thriller'
p665
asI190
(lp666
S'Comedy'
p667
aS'Drama'
p668
aS'Romance'
p669
asI191
(lp670
S'Crime'
p671
aS'Drama'
p672
aS'Mystery'
p673
asI192
(lp674
S'Action'
p675
aS'Adventure'
p676
aS'Fantasy'
p677
asI193
(lp678
S'Comedy'
p679
aS'Drama'
p680
aS'Sci-Fi'
p681
asI194
(lp682
S'Animation'
p683
aS'Adventure'
p684
aS'Comedy'
p685
asI195
(lp686
S'Action'
p687
aS'Sci-Fi'
p688
aS'Thriller'
p689
asI196
(lp690
S'Adventure'
p691
aS'Family'
p692
aS'Fantasy'
p693
asI197
(lp694
S'Action'
p695
aS'Biography'
p696
aS'Drama'
p697
asI198
(lp698
S'Animation'
p699
aS'Comedy'
p700
aS'Family'
p701
asI199
(lp702
S'Action'
p703
aS'Adventure'
p704
aS'Sci-Fi'
p705
asI200
(lp706
S'Drama'
p707
asI201
(lp708
S'Adventure'
p709
aS'Sci-Fi'
p710
asI202
(lp711
S'Drama'
p712
aS'War'
p713
asI203
(lp714
S'Mystery'
p715
aS'Thriller'
p716
asI204
(lp717
S'Animation'
p718
aS'Family'
p719
aS'Fantasy'
p720
asI205
(lp721
S'Drama'
p722
asI206
(lp723
S'Comedy'
p724
aS'Drama'
p725
aS'Romance'
p726
asI207
(lp727
S'Drama'
p728
aS'Horror'
p729
aS'Mystery'
p730
asI208
(lp731
S'Comedy'
p732
aS'Drama'
p733
asI209
(lp734
S'Drama'
p735
asI210
(lp736
S'Crime'
p737
aS'Drama'
p738
aS'Mystery'
p739
asI211
(lp740
S'Biography'
p741
aS'Crime'
p742
aS'Drama'
p743
asI212
(lp744
S'Comedy'
p745
aS'Drama'
p746
aS'Romance'
p747
asI213
(lp748
S'Drama'
p749
aS'Romance'
p750
asI214
(lp751
S'Drama'
p752
asI215
(lp753
S'Drama'
p754
asI216
(lp755
S'Drama'
p756
aS'Romance'
p757
aS'Sport'
p758
asI217
(lp759
S'Crime'
p760
aS'Drama'
p761
aS'History'
p762
asI218
(lp763
S'Drama'
p764
asI219
(lp765
S'Drama'
p766
aS'History'
p767
as.