(dp0
I0
S'\nTwo imprisoned men bond over a number of years, finding solace and eventual redemption through acts of common decency.    '
p1
sI1
S'\nThe aging patriarch of an organized crime dynasty transfers control of his clandestine empire to his reluctant son.    '
p2
sI2
S'\nThe early life and career of Vito Corleone in 1920s New York is portrayed while his son, Michael, expands and tightens his grip on his crime syndicate stretching from Lake Tahoe, Nevada to pre-revolution 1958 Cuba.    '
p3
sI3
S"\nThe lives of two mob hit men, a boxer, a gangster's wife, and a pair of diner bandits intertwine in four tales of violence and redemption.    "
p4
sI4
S'\nA bounty hunting scam joins two men in an uneasy alliance against a third in a race to find a fortune in gold buried in a remote cemetery.    '
p5
sI5
S'\nA dissenting juror in a murder trial slowly manages to convince the others that the case is not as obviously clear as it seemed in court.    '
p6
sI6
S'\nWhen Batman, Gordon and Harvey Dent launch an assault on the mob, they let the clown out of the box, the Joker, bent on turning Gotham on itself and bringing any heroes down to his level.    '
p7
sI7
S'\nIn Poland during World War II, Oskar Schindler gradually becomes concerned for his Jewish workforce after witnessing their persecution by the Nazis.    '
p8
sI8
S"\nGandalf and Aragorn lead the World of Men against Sauron's army to draw his gaze from Frodo and Sam as they approach Mount Doom with the One Ring.    "
p9
sI9
S'\nAn insomniac office worker looking for a way to change his life crosses paths with a devil-may-care soap maker and they form an underground fight club that evolves into something much, much more...    '
p10
sI10
S'\nAs Luke trains with Master Yoda to become a Jedi Knight, his friends evade the Imperial fleet under the command of Darth Vader who is obsessed with turning Skywalker to the Dark Side of the Force.    '
p11
sI11
S'\nA meek hobbit of The Shire and eight companions set out on a journey to Mount Doom to destroy the One Ring and the dark lord Sauron.    '
p12
sI12
S'\nUpon admittance to a mental institution, a brash rebel rallies the patients to take on the oppressive head nurse, a woman he views as more dictator than nurse.    '
p13
sI13
S'\nA skilled extractor is offered a chance to regain his old life as payment for a task considered to be impossible.    '
p14
sI14
S'\nHenry Hill and his friends work their way up through the mob hierarchy.    '
p15
sI15
S"\nLuke Skywalker, a spirited farm boy, joins rebel forces to save Princess Leia from the evil Darth Vader, and the galaxy from the Empire's planet-destroying Death Star.    "
p16
sI16
S'\nForrest Gump, while not intelligent, has accidentally been present at many historic moments, but his true love, Jenny Curran, eludes him.    '
p17
sI17
S'\nA computer hacker learns from mysterious rebels about the true nature of his reality and his role in the war against its controllers.    '
p18
sI18
S"\nWhile Frodo and Sam edge closer to Mordor with the help of the shifty Gollum, the divided fellowship makes a stand against Sauron's new ally, Saruman, and his hordes of Isengard.    "
p19
sI19
S'\nTwo boys growing up in a violent neighborhood of Rio de Janeiro take different paths: one becomes a photographer, the other a drug dealer.    '
p20
sI20
S'\nTwo detectives, a rookie and a veteran, hunt a serial killer who uses the seven deadly sins as his modus operandi.    '
p21
sI21
S'\nA young FBI cadet must confide in an incarcerated and manipulative killer to receive his help on catching another serial killer who skins his victims.    '
p22
sI22
S'\nEpic story of a mysterious stranger with a harmonica who joins forces with a notorious desperado to protect a beautiful widow from a ruthless assassin working for the railroad.    '
p23
sI23
S'\nSet in unoccupied Africa during the early days of World War II: An American expatriate meets a former lover, with unforeseen complications.    '
p24
sI24
S'\nA boat has been destroyed, criminals are dead, and the key to this mystery lies with the only survivor and his twisted, convoluted story beginning with five career crooks in a seemingly random police lineup.    '
p25
sI25
S'\nArcheologist and adventurer Indiana Jones is hired by the US government to find the Ark of the Covenant before the Nazis.    '
p26
sI26
S'\nA wheelchair bound photographer spies on his neighbours from his apartment window and becomes convinced one of them has committed murder.    '
p27
sI27
S'\nAn angel helps a compassionate but despairingly frustrated businessman by showing what life would have been like if he never existed.    '
p28
sI28
S"\nA thirty-something secretary steals $40,000 from her employer's client, and subsequently encounters a young motel proprietor too long under the domination of his mother.    "
p29
sI29
S'\nA hack screenwriter writes a screenplay for a former silent-film star who has faded into Hollywood obscurity.    '
p30
sI30
S'\nA former neo-nazi skinhead tries to prevent his younger brother from going down the same wrong path that he did.    '
p31
sI31
S'\nA man, suffering from short-term memory loss, uses notes and tattoos to hunt for the man he thinks killed his wife.    '
p32
sI32
S'\nDuring the U.S.-Viet Nam War, Captain Willard is sent on a dangerous mission into Cambodia to assassinate a renegade colonel who has set himself up as a god among a local tribe.    '
p33
sI33
S'\nThe cyborg who once tried to kill Sarah Connor is dead, and another T-101 must now protect her teenage son, John Connor, from an even more powerful and advanced Terminator, the T-1000.    '
p34
sI34
S'\nFollowing the Normandy Landings, a group of U.S. soldiers go behind enemy lines to retrieve a paratrooper whose brothers have been killed in action.    '
p35
sI35
S'\nAn insane general starts a process to nuclear holocaust that a war room of politicians and generals frantically try to stop.    '
p36
sI36
S'\nThe Tramp struggles to help a blind flower girl he has fallen in love with.    '
p37
sI37
S'\nThe crew of a commercial deep space mining ship, investigating a suspected S.O.S., lands on a distant planet and discovers a nest of strange eggs.    '
p38
sI38
S'\nA hapless New York advertising executive is mistaken for a government agent by a group of foreign spies, and is pursued across the country while he looks for a way to survive.    '
p39
sI39
S"\nIn the middle of her family's move to the suburbs, a sullen 10-year-old girl wanders into a world ruled by gods, witches, and monsters; where humans are changed into animals; and a bathhouse for these creatures.    "
p40
sI40
S'\nThe Tramp struggles to live in modern industrial society with the help of a young homeless woman.    '
p41
sI41
S'\nWith the help of a German bounty hunter, a freed slave sets out to rescue his wife from a brutal Mississippi plantation owner.    '
p42
sI42
S'\nFollowing the death of a publishing tycoon, news reporters scramble to discover the meaning of his final utterance.    '
p43
sI43
S'\nA teenager is accidentally sent 30 years into the past in a time-traveling DeLorean invented by his friend, Dr. Emmett Brown, and must make sure his high-school-age parents unite in order to save his own existence.    '
p44
sI44
S'\nA family heads to an isolated hotel for the winter where an evil and spiritual presence influences the father into violence, while his psychic son sees horrific forebodings from the past and of the future.    '
p45
sI45
S'\nEight years on, a new evil rises from where the Batman and Commissioner Gordon tried to bury it, causing the Batman to resurface and fight to protect Gotham City... the very city which brands him an enemy.    '
p46
sI46
S'\nA Polish Jewish musician struggles to survive the destruction of the Warsaw ghetto of World War II.    '
p47
sI47
S'\nA Jewish man has a wonderful romance with the help of his humour, but must use that same quality to protect his son in a Nazi death camp.    '
p48
sI48
S'\nAn undercover state cop who infiltrated a Mafia clan and a mole in the police force working for the same mob race to track down and identify each other before being exposed to the enemy, after both sides realize their outfit has a rat.    '
p49
sI49
S'\nWhen the police in a German city are unable to catch a child-murderer, other criminals join in the manhunt.    '
p50
sI50
S"\nA retired San Francisco detective suffering from acrophobia investigates the strange activities of an old friend's much-younger wife, all the while becoming dangerously obsessed with her.    "
p51
sI51
S'\nWhen soldiers in WW1 refuse to continue with an impossible attack, their superiors decide to make an example of them.    '
p52
sI52
S"\nLester Burnham, a depressed suburban father in a mid-life crisis, decides to turn his hectic life around after developing an infatuation for his daughter's attractive friend.    "
p53
sI53
S'\nA mentally unstable Vietnam war veteran works as a nighttime taxi driver in New York City where the perceived decadence and sleaze feeds his urge to violently lash out, attempting to save a teenage prostitute in the process.    '
p54
sI54
S"\nAn insurance rep lets himself be talked into a murder/insurance fraud scheme that arouses an insurance investigator's suspicions.    "
p55
sI55
S'\nThe planet from '
p56
sI56
S"\nThe toys are mistakenly delivered to a day-care center instead of the attic right before Andy leaves for college, and it's up to Woody to convince the other toys that they weren't abandoned and to return home.    "
p57
sI57
S'\nThe lives of guards on Death Row are affected by one of their charges: a black man accused of child murder and rape, yet who has a mysterious gift.    '
p58
sI58
S"\nWhen a Roman general is betrayed and his family murdered by an emperor's corrupt son, he comes to Rome as a gladiator to seek revenge.    "
p59
sI59
S"\nIn future Britain, charismatic delinquent Alex DeLarge is jailed and volunteers for an experimental aversion therapy developed by the government in an effort to solve society's crime problem... but not all goes to plan.    "
p60
sI60
S'\nDictator Adenoid Hynkel has a doppelganger, a poor but kind Jewish barber living in the slums, who one day is mistaken for Hynkel.    '
p61
sI61
S'\nThe rivalry between two magicians is exacerbated when one of them performs the ultimate illusion.    '
p62
sI62
S'\nA flamboyant and controversial British military figure and his conflicted loyalties during his World War I service in Arabia.    '
p63
sI63
S'\nAtticus Finch, a lawyer in the Depression-era South, defends a black man against an undeserved rape charge, and his kids against prejudice.    '
p64
sI64
S'\nAfter a simple jewelery heist goes terribly wrong, the surviving criminals begin to suspect that one of them is a police informant.    '
p65
sI65
S"\nA filmmaker recalls his childhood, when he fell in love with the movies at his village's theater and formed a deep friendship with the theater's projectionist.    "
p66
sI66
S'\nPulp novelist Holly Martins travels to shadowy, postwar Vienna, only to find himself investigating the mysterious death of an old friend, black-market opportunist Harry Lime.    '
p67
sI67
S'\nThe drug-induced utopias of four Coney Island individuals are shattered when their addictions become stronger.    '
p68
sI68
S'\nFred Dobbs and Bob Curtin, two Americans searching for work in Mexico, convince an old prospector to help them mine for gold in the Sierra Madre Mountains.    '
p69
sI69
S'\nTricked into thinking he killed his father, a guilt ridden lion cub flees into exile and abandons his identity as the future King.    '
p70
sI70
S'\nA couple undergo a procedure to erase each other from their memories when their relationship turns sour, but it is only through the process of loss that they discover what they had to begin with.    '
p71
sI71
S'\nA former Prohibition-era Jewish gangster returns to the Lower East Side of Manhattan over thirty years later, where he once again must confront the ghosts and regrets of his old life.    '
p72
sI72
S'\nAfter rescuing Han Solo from the palace of Jabba the Hutt, the Rebels attempt to destroy the Second Death Star, while Luke Skywalker tries to bring his father back to the Light Side of the Force.    '
p73
sI73
S'\nA pragmatic U.S. Marine observes the dehumanizing effects the Vietnam War has on his fellow Marine recruits from their brutal boot camp training to the bloody street fighting set in 1968 in Hue, Vietnam.    '
p74
sI74
S'\nAs corruption grows in 1950s LA, three policemen - the straight-laced, the brutal, and the sleazy - investigate a series of murders with their own brand of justice.    '
p75
sI75
S'\nWhen his secret bride is executed for assaulting an English soldier whom tried to rape her, a commoner begins a revolt and leads Scottish warriors against the cruel English tyrant who rules Scotland with an iron-fist.    '
p76
sI76
S'\nA private detective investigating an adultery case stumbles on to a scheme of murder that has something to do with water.    '
p77
sI77
S'\nAfter being kidnapped and imprisoned for 15 years, Oh Dae-Su is released, only to find that he must find his captor in 5 days.    '
p78
sI78
S'\nA silent film production company and cast make a difficult transition to sound.    '
p79
sI79
S'\nKing Arthur and his knights embark on a low-budget search for the Grail, encountering many very silly obstacles.    '
p80
sI80
S'\nWhen two musicians witness a mob hit, they flee the state in an all female band disguised as women, but further complications set in.    '
p81
sI81
S'\nA man and his son search for a stolen bicycle vital for his job.    '
p82
sI82
S'\nThe incredible story of Wolfgang Amadeus Mozart, told in flashback by his peer and secret rival Antonio Salieri - now confined to an insane asylum.    '
p83
sI83
S'\nHumanity finds a mysterious, obviously artificial, object buried beneath the Lunar surface and, with the intelligent computer H.A.L. 9000, sets off on a quest.    '
p84
sI84
S'\nAn ingenue insinuates herself in to the company of an established but aging stage actress and her circle of theater friends.    '
p85
sI85
S'\nIn 1930s Chicago, a young con man seeking revenge for his murdered partner teams up with a master of the big con to win a fortune from a criminal banker.    '
p86
sI86
S'\nRetired Old West gunslinger William Munny reluctantly takes on one last job, with the help of his old partner and a young man.    '
p87
sI87
S'\nA man tries to rise in his company by letting its executives use his apartment for trysts, but complications and a romance of his own ensue.    '
p88
sI88
S"\nWhen Dr. Henry Jones Sr. suddenly goes missing while pursuing the Holy Grail, eminent archaeologist Indiana Jones must follow in his father's footsteps and stop the Nazis.    "
p89
sI89
S"\nAn emotionally self-destructive boxer's journey through life, as the violence and temper that leads him to the top in the ring, destroys his life outside it.    "
p90
sI90
S"\nAfter settling his differences with a Japanese PoW camp commander, a British colonel co-operates to oversee his men's construction of a railway bridge for their captors - while oblivious to a plan by the Allies to destroy it.    "
p91
sI91
S'\nAgatha Christie tale of a man on trial for murder: a trial featuring surprise after surprise.    '
p92
sI92
S"\nA tragic film covering a young boy and his little sister's struggle to survive in Japan during World War II.    "
p93
sI93
S'\nJohn McClane, officer of the NYPD, tries to save wife Holly Gennaro and several others, taken hostage by German terrorist Hans Gruber during a Christmas party at the Nakatomi Plaza in Los Angeles.    '
p94
sI94
S'\nAfter training with his mentor, Batman begins his war on crime to free the crime-ridden Gotham City from corruption that the Scarecrow and the League of Shadows have cast upon it.    '
p95
sI95
S"\nA married couple are faced with a difficult decision - to improve the life of their child by moving to another country or to stay in Iran and look after a deteriorating parent who has Alzheimer's disease.    "
p96
sI96
S'\nUnscrupulous boxing promoters, violent bookmakers, a Russian gangster, incompetent amateur robbers, and supposedly Jewish jewelers fight to track down a priceless stolen diamond.    '
p97
sI97
S"\nTraudl Junge, the final secretary for Adolf Hitler, tells of the Nazi dictator's final days in his Berlin bunker at the end of WWII.    "
p98
sI98
S'\nAllied POWs plan for several hundred of their number to escape from a German camp during World War II.    '
p99
sI99
S"\nA naive man is appointed to fill a vacancy in the US Senate. His plans promptly collide with political corruption, but he doesn't back down.    "
p100
sI100
S'\nBy tying thousands of balloons to his home, 78-year-old Carl sets out to fulfill his lifelong dream to see the wilds of South America. Russell, a wilderness explorer 70 years younger, inadvertently becomes a stowaway.    '
p101
sI101
S"\nA cowboy doll is profoundly threatened and jealous when a new spaceman figure supplants him as top toy in a boy's room.    "
p102
sI102
S'\nAn ex-prize fighter turned longshoreman struggles to stand up to his corrupt union bosses.    '
p103
sI103
S'\nA Victorian surgeon rescues a heavily disfigured man who is mistreated while scraping a living as a side-show freak. Behind his monstrous facade, there is revealed a person of intelligence and sensitivity.    '
p104
sI104
S'\nA group of professional bank robbers start to feel the heat from police when they unknowingly leave a clue at their latest heist.    '
p105
sI105
S"\nWhen Union spies steal an engineer's beloved locomotive, he pursues it single handedly and straight through enemy lines.    "
p106
sI106
S'\nA private detective takes on a case that involves him with three eccentric criminals, a gorgeous liar, and their quest for a priceless statuette.    '
p107
sI107
S'\nDeckard, a blade runner, has to track down and terminate 4 replicants who hijacked a ship in space and have returned to Earth seeking their maker.    '
p108
sI108
S'\nWhen a naive young woman marries a rich widower and settles in his gigantic mansion, she finds the memory of the first wife maintaining a grip on her husband and the servants.    '
p109
sI109
S'\nThe Tramp cares for an abandoned child, but events put that relationship in jeopardy.    '
p110
sI110
S"\nDisgruntled Korean War vet Walt Kowalski sets out to reform his neighbor, a young Hmong teenager, who tried to steal Kowalski's prized possession: his 1972 Gran Torino.    "
p111
sI111
S'\nIn 1980 Miami, a determined Cuban immigrant takes over a drug cartel while succumbing to greed.    '
p112
sI112
S"\nJerry Lundegaard's inept crime falls apart due to his and his henchmen's bungling and the persistent police work of the quite pregnant Marge Gunderson.    "
p113
sI113
S'\nAn elderly lord abdicates to his three sons, and the two corrupt ones turn against him.    '
p114
sI114
S'\n"Dude" Lebowski, mistaken for a millionaire Lebowski, seeks restitution for his ruined rug and enlists his bowling buddies to help get it.    '
p115
sI115
S'\nStark, perverse story of murder, kidnapping, and police corruption in Mexican border town.    '
p116
sI116
S'\nAn in-depth examination of the way that the Vietnam war affects the lives of people in a small industrial town in the USA.    '
p117
sI117
S'\nA man refuses to conform to life in a rural prison.    '
p118
sI118
S'\nThe Tramp goes the Klondike in search of gold and finds it and more.    '
p119
sI119
S'\nFour London working class stiffs pool their money to put one in a high stakes card game, but things go wrong and they end up owing half a million pounds and having one week to come up with the cash.    '
p120
sI120
S'\nViolence and mayhem ensue after a hunter stumbles upon a drug deal gone wrong and more than two million dollars in cash near the Rio Grande.    '
p121
sI121
S"\nA spoiled heiress, running away from her family, is helped by a man who's actually a reporter looking for a story.    "
p122
sI122
S'\nA film that explores the dark and miserable town, Basin City, and tells the story of three different people, all caught up in violent corruption.    '
p123
sI123
S'\nA psychotic socialite confronts a pro tennis star with a theory on how two complete strangers can get away with murder...a theory that he plans to implement.    '
p124
sI124
S'\nWhen a gigantic great white shark begins to menace the small island community of Amity, a police chief, a marine scientist and grizzled fisherman set out to stop it.    '
p125
sI125
S'\nGreed, deception, money, power, and murder occur between two mobster best friends and a trophy wife over a gambling empire.    '
p126
sI126
S"\nA boy who communicates with spirits that don't know they're dead seeks the help of a disheartened child psychologist.    "
p127
sI127
S'\nA young recruit in Vietnam faces a moral crisis when confronted with the horrors of war and the duality of man.    '
p128
sI128
S'\nScientists in the Antarctic are confronted by a shape-shifting alien that assumes the appearance of the people that it kills.    '
p129
sI129
S'\nRenton, deeply immersed in the Edinburgh drug scene, tries to clean up and get out, despite the allure of the drugs and influence of friends.    '
p130
sI130
S'\nTwo Western bank/train robbers flee to Bolivia when the law gets too close.    '
p131
sI131
S'\nNick Fury of S.H.I.E.L.D. brings together a team of super humans to form The Avengers to help save the Earth from Loki and his army.    '
p132
sI132
S'\nA marshall, personally compelled to face a returning deadly enemy, finds that his own town refuses to help him.    '
p133
sI133
S'\nDorothy Gale is swept away to a magical land in a tornado and embarks on a quest to see the Wizard who can help her return home.    '
p134
sI134
S'\nWill Hunting, a janitor at MIT, has a gift for mathematics but needs help from a psychologist to find direction in his life.    '
p135
sI135
S'\nThe true-life story of Paul Rusesabagina, a hotel manager who housed over a thousand Tutsi refugees during their struggle against the Hutu militia in Rwanda.    '
p136
sI136
S'\nThe Bride wakens from a four-year coma. The child she carried in her womb is gone. Now she must wreak vengeance on the team of assassins who betrayed her - a team she was once part of.    '
p137
sI137
S"\nThe youngest son of an alcoholic former boxer returns home, where he's trained by his father for competition in a mixed martial arts tournament - a path that puts the fighter on a collision corner with his older brother.    "
p138
sI138
S'\nNeurotic New York comedian Alvy Singer falls in love with the ditsy Annie Hall.    '
p139
sI139
S'\nAmerican classic in which a manipulative woman and a roguish man carry on a turbulent love affair in the American south during the Civil War and Reconstruction.    '
p140
sI140
S'\nA poor Midwest family is forced off of their land. They travel to California, suffering the misfortunes of the homeless in the Great Depression.    '
p141
sI141
S'\nA woman is asked to spy on a group of Nazi friends in South America. How far will she have to go to ingratiate herself with them?    '
p142
sI142
S'\nWhen two girls move to the country to be near their ailing mother, they have adventures with the wonderous forest spirits who live nearby.    '
p143
sI143
S'\nAfter graduating from Emory University, top student and athlete Christopher McCandless abandons his possessions, gives his entire $24,000 savings account to charity and hitchhikes to Alaska to live in the wilderness. Along the way, Christopher encounters a series of characters that shape his life.    '
p144
sI144
S'\nA shadowy freedom fighter known only as "V" uses terrorist tactics to fight against his totalitarian society. Upon rescuing a girl from the secret police, he also finds his best chance at having an ally.    '
p145
sI145
S'\nBrian is born on the original Christmas, in the stable next door. He spends his life being mistaken for a messiah.    '
p146
sI146
S'\nAfter his son is captured in the Great Barrier Reef and taken to Sydney, a timid clownfish sets out on a journey to bring him home.    '
p147
sI147
S'\nA hapless young Viking who aspires to hunt dragons becomes the unlikely friend of a young dragon himself, and learns there may be more to the creatures than he assumed.    '
p148
sI148
S'\nAn ex-tennis pro carries out a plot to murder his wife. When things go wrong, he improvises a brilliant plan B.    '
p149
sI149
S'\nThe story of King George VI of Britain, his impromptu ascension to the throne and the speech therapist who helped the unsure monarch become worthy of it.    '
p150
sI150
S'\nA story of family, religion, hatred, oil and madness, focusing on a turn-of-the-century prospector in the early days of the business.    '
p151
sI151
S"\nPrivate detective Philip Marlowe is hired by a rich family. Before the complex case is over, he's seen murder, blackmail, and what might be love.    "
p152
sI152
S"\nA religious fanatic marries a gullible widow whose young children are reluctant to tell him where their real daddy hid $10,000 he'd stolen in a robbery.    "
p153
sI153
S"\nA TV network cynically exploits a deranged ex-TV anchor's ravings and revelations about the media for their own profit.    "
p154
sI154
S'\nA robotic assassin from a post-apocalyptic future travels back in time to eliminate a waitress, whose son will grow up and lead humanity in a war against machines.    '
p155
sI155
S'\nWhen a Jewish prince is betrayed and sent into slavery by a Roman friend, he regains his freedom and comes back for revenge.    '
p156
sI156
S'\nA determined woman works with a hardened boxing trainer to become a professional.    '
p157
sI157
S'\nAfter the death of a friend, a writer recounts a boyhood journey to find the body of a missing boy.    '
p158
sI158
S'\nThree WWII veterans return home to small-town America to discover that they and their families have been irreparably changed.    '
p159
sI159
S'\nA weatherman finds himself living the same day over and over again.    '
p160
sI160
S'\nA troubled teenager is plagued by visions of a large bunny rabbit that manipulates him to commit a series of crimes, after narrowly escaping a bizarre accident.    '
p161
sI161
S'\nIn a future world devastated by disease, a convict is sent back in time to gather information about the man-made virus that wiped out most of the human population on the planet.    '
p162
sI162
S"\nA man robs a bank to pay for his lover's operation; it turns into a hostage situation and a media circus.    "
p163
sI163
S'\nA tale of friendship between two unlikely pen pals: Mary, a lonely, eight-year-old girl living in the suburbs of Melbourne, and Max, a forty-four-year old, severely obese man living in New York.    '
p164
sI164
S'\nA ballet dancer wins the lead in "Swan Lake" and is perfect for the role of the delicate White Swan - Princess Odette - but slowly loses her mind as she becomes more and more like Odile, the Black Swan.    '
p165
sI165
S"\nA nurse is put in charge of an actress who can't talk and finds that the actress's persona is melding with hers.    "
p166
sI166
S'\nBiography of '
p167
sI167
S'\nCrooks plan and execute a daring racetrack robbery.    '
p168
sI168
S"\nRecent college graduate Benjamin Braddock is trapped into an affair with Mrs. Robinson, who happens to be the wife of his father's business partner and then finds himself falling in love with her daughter, Elaine.    "
p169
sI169
S'\nAfter a brilliant but asocial mathematician accepts secret work in cryptography, his life takes a turn to the nightmarish.    '
p170
sI170
S'\nA classic fairy tale, with swordplay, giants, an evil prince, a beautiful princess, and yes, some kissing (as read by a kindly grandfather).    '
p171
sI171
S'\nA younger and more reluctant Hobbit, Bilbo Baggins, sets out on an "unexpected journey" to the Lonely Mountain with a spirited group of Dwarves to reclaim their stolen mountain home from a dragon named Smaug.    '
p172
sI172
S'\nA young man who survives a disaster at sea is hurtled into an epic journey of adventure and discovery. While cast away, he forms an unexpected connection with another survivor: a fearsome Bengal tiger.    '
p173
sI173
S'\nAn up-and-coming pool player plays a long-time champion in a single high-stakes match.    '
p174
sI174
S'\nA bitter aging couple with the help of alcohol, use a young couple to fuel anguish and emotional pain towards each other.    '
p175
sI175
S'\nA Mumbai teen who grew up in the slums, becomes a contestant on the Indian version of "Who Wants To Be A Millionaire?" He is arrested under suspicion of cheating, and while being interrogated, events from his life history are shown which explain why he knows the answers.    '
p176
sI176
S'\nA carefree girl is sold to a traveling entertainer, consequently enduring physical and emotional pain along the way.    '
p177
sI177
S'\nA small time boxer gets a once in a lifetime chance to fight the heavyweight champ in a bout in which he strives to go the distance for his self-respect.    '
p178
sI178
S'\nIn a murder trial, the defendant says he suffered temporary insanity after the victim raped his wife. What is the truth, and will he win his case?    '
p179
sI179
S'\nA former Korean War POW is brainwashed by Communists into becoming a political assassin. But another former prisoner may know how to save him.    '
p180
sI180
S'\nWhen a teenage girl is possessed by a mysterious entity, her mother seeks the help of two priests to save her daughter.    '
p181
sI181
S'\nAn aging group of outlaws look for one last big score as the "traditional" American West is disappearing around them.    '
p182
sI182
S'\nA senator, who became famous for killing a notorious outlaw, returns for the funeral of an old friend and tells the truth about his deed.    '
p183
sI183
S'\nTwo young men strangle their "inferior" classmate, hide his body in their apartment, and invite his friends and family to a dinner party as a means to challenge the "perfection" of their crime.    '
p184
sI184
S'\nWhen two escaping American World War II prisoners are killed, the German POW camp barracks black marketeer, J.J. Sefton, is suspected of being an informer.    '
p185
sI185
S"\nAn Irish rogue wins the heart of a rich widow and assumes her dead husband's position in 18th Century aristocracy.    "
p186
sI186
S"\nA man who loves games and theater invites his wife's lover to meet him, setting up a battle of wits with potentially deadly results.    "
p187
sI187
S'\nA guide leads two men through an area known as the Zone to find a room that grants wishes.    '
p188
sI188
S"\nA man's coerced confession to an I.R.A. bombing he didn't commit imprisons his father as well; a British lawyer helps fight for their freedom.    "
p189
sI189
S'\nA story between a mole in the police department and an undercover cop. Their objectives are the same: to find out who is the mole, and who is the cop.    '
p190
sI190
S'\nA bored and sheltered princess escapes her guardians and falls in love with an American newsman in Rome.    '
p191
sI191
S'\nIn 1986, in the province of Gyunggi, in South Korea, a second young and beautiful woman is found dead, raped and tied and gagged with her underwear. Detective Park Doo-Man and Detective Cho...                '
p192
sI192
S'\nBlacksmith Will Turner teams up with eccentric pirate "Captain" Jack Sparrow to save his love, the governor\'s daughter, from Jack\'s former pirate allies, who are now undead.    '
p193
sI193
S'\nAn insurance salesman/adjuster discovers his entire life is actually a TV show.    '
p194
sI194
S"\nMonsters generate their city's power by scaring children, but they are terribly afraid themselves of being contaminated by children, so when one enters Monstropolis, top scarer Sulley finds his world disrupted.    "
p195
sI195
S'\nAn extraterrestrial race forced to live in slum-like conditions on Earth suddenly finds a kindred spirit in a government agent who is exposed to their biotechnology.    '
p196
sI196
S"\nHarry, Ron and Hermione search for Voldemort's remaining Horcruxes in their effort to destroy the Dark Lord.    "
p197
sI197
S'\nA semi-biographical account of Yip Man, the first martial arts master to teach the Chinese martial art of Wing Chun.    '
p198
sI198
S'\nWith dreams of becoming a chef, a culinary genius in the form of a rat, makes an unusual alliance with a young kitchen worker at a famed restaurant.    '
p199
sI199
S"\nThe brash James T. Kirk tries to live up to his father's legacy with Mr. Spock keeping him in check as a vengeful, time-traveling Romulan creates black holes to destroy the Federation one planet at a time.    "
p200
sI200
S'\nDisturbed Blanche DuBois moves in with her sister in New Orleans and is tormented by her brutish brother-in-law while her reality crumbles around her.    '
p201
sI201
S'\nDuring a preview tour, a theme park suffers a major power breakdown that allows its cloned dinosaur exhibits to run amok.    '
p202
sI202
S'\nA young soldier faces profound disillusionment in the soul-destroying horror of World War I.    '
p203
sI203
S'\nDrama set in 1954, U.S. Marshal Teddy Daniels is investigating the disappearance of a murderess who escaped from a hospital for the criminally insane and is presumed to be hiding nearby.    '
p204
sI204
S'\nBelle, whose father is imprisoned by the Beast, offers herself instead and discovers her captor to be an enchanted prince.    '
p205
sI205
S"\nSelfish yuppie Charlie Babbitt's father left a fortune to his savant brother Raymond and a pittance to Charlie; they travel cross-country.    "
p206
sI206
S'\nTwo friends are searching for their long lost companion. They revisit their college days and recall the memories of their friend who inspired them to think differently, even as the rest of the world called them "idiots".    '
p207
sI207
S'\nA young couple move into a new apartment, only to be surrounded by peculiar neighbors and occurrences. When the wife becomes mysteriously pregnant, paranoia over the safety of her unborn child begins controlling her life.    '
p208
sI208
S'\nElwood P. Dowd is a mild-mannered, pleasant man, who just happens (he says) to have an invisible friend resembling a 6-foot rabbit.    '
p209
sI209
S'\nAn eight year old boy is thought to be lazy and a troublemaker, until the new art teacher has the patience and compassion to discover the real problem behind his struggles in school.    '
p210
sI210
S'\nWith a childhood tragedy that overshadowed their lives, three men are reunited by circumstance when one loses a daughter.    '
p211
sI211
S'\nA man befriends a fellow criminal as the two of them begin serving their sentence on a dreadful prison island, which inspires the man to plot his escape.    '
p212
sI212
S'\nA divorced New Yorker currently dating a high-schooler brings himself to look for love in the mistress of his best friend instead.    '
p213
sI213
S'\nAn introvert freshman is taken under the wings of two seniors who welcome him to the real world.    '
p214
sI214
S'\nThis film takes place in an isolated lake, where an old monk lives on a small floating temple. The wise master has also a young boy with him that teaches to become a monk. And we watch as seasons and years pass by.    '
p215
sI215
S"\nAn aspiring author during the civil rights movement of the 1960s decides to write a book detailing the African-American maids' point of view on the white families for which they work, and the hardships they go through on a daily basis.    "
p216
sI216
S'\nA faded professional wrestler must retire, but finds his quest for a new life outside the ring a dispiriting struggle.    '
p217
sI217
S'\nFederal Agent Eliot Ness sets out to stop Al Capone; because of rampant corruption, he assembles a small, hand-picked team.    '
p218
sI218
S"\nAt Helge's 60th birthday party, some unpleasant family truths are revealed.    "
p219
sI219
S'\nA dramatized account of a great Russian naval mutiny and a resulting street demonstration which brought on a police massacre.    '
p220
s.