(dp0
I0
(lp1
S'Tim Robbins'
p2
aS'Morgan Freeman'
p3
aS'Bob Gunton'
p4
asI1
(lp5
S'Marlon Brando'
p6
aS'Al Pacino'
p7
aS'James Caan'
p8
asI2
(lp9
S'Al Pacino'
p10
aS'Robert Duvall'
p11
aS'Diane Keaton'
p12
asI3
(lp13
S'John Travolta'
p14
aS'Samuel L. Jackson'
p15
aS'Bruce Willis'
p16
asI4
(lp17
S'Eli Wallach'
p18
aS'Clint Eastwood'
p19
aS'Lee Van Cleef'
p20
asI5
(lp21
S'Martin Balsam'
p22
aS'John Fiedler'
p23
aS'Lee J. Cobb'
p24
asI6
(lp25
S'Christian Bale'
p26
aS'Heath Ledger'
p27
aS'Aaron Eckhart'
p28
asI7
(lp29
S'Liam Neeson'
p30
aS'Ben Kingsley'
p31
aS'Ralph Fiennes'
p32
asI8
(lp33
S'Orlando Bloom'
p34
aS'Ian McKellen'
p35
aS'Viggo Mortensen'
p36
asI9
(lp37
S'Edward Norton'
p38
aS'Brad Pitt'
p39
aS'Helena Bonham Carter'
p40
asI10
(lp41
S'Mark Hamill'
p42
aS'Harrison Ford'
p43
aS'Carrie Fisher'
p44
asI11
(lp45
S'Elijah Wood'
p46
aS'Sean Bean'
p47
aS'Orlando Bloom'
p48
asI12
(lp49
S'Michael Berryman'
p50
aS'Peter Brocco'
p51
aS'Louise Fletcher'
p52
asI13
(lp53
S'Leonardo DiCaprio'
p54
aS'Joseph Gordon-Levitt'
p55
aS'Ellen Page'
p56
asI14
(lp57
S'Robert De Niro'
p58
aS'Ray Liotta'
p59
aS'Joe Pesci'
p60
asI15
(lp61
S'Mark Hamill'
p62
aS'Harrison Ford'
p63
aS'Carrie Fisher'
p64
asI16
(lp65
S'Tom Hanks'
p66
aS'Sally Field'
p67
aS'Robin Wright'
p68
asI17
(lp69
S'Keanu Reeves'
p70
aS'Laurence Fishburne'
p71
aS'Carrie-Anne Moss'
p72
asI18
(lp73
S'Orlando Bloom'
p74
aS'Ian McKellen'
p75
aS'Viggo Mortensen'
p76
asI19
(lp77
S'Alexandre Rodrigues'
p78
aS'Leandro Firmino'
p79
aS'Phellipe Haagensen'
p80
asI20
(lp81
S'Brad Pitt'
p82
aS'Morgan Freeman'
p83
aS'Gwyneth Paltrow'
p84
asI21
(lp85
S'Jodie Foster'
p86
aS'Lawrence A. Bonney'
p87
aS'Kasi Lemmons'
p88
asI22
(lp89
S'Claudia Cardinale'
p90
aS'Henry Fonda'
p91
aS'Jason Robards'
p92
asI23
(lp93
S'Humphrey Bogart'
p94
aS'Ingrid Bergman'
p95
aS'Paul Henreid'
p96
asI24
(lp97
S'Stephen Baldwin'
p98
aS'Gabriel Byrne'
p99
aS'Kevin Spacey'
p100
asI25
(lp101
S'Harrison Ford'
p102
aS'Karen Allen'
p103
aS'Paul Freeman'
p104
asI26
(lp105
S'James Stewart'
p106
aS'Grace Kelly'
p107
aS'Wendell Corey'
p108
asI27
(lp109
S'James Stewart'
p110
aS'Donna Reed'
p111
aS'Lionel Barrymore'
p112
asI28
(lp113
S'Anthony Perkins'
p114
aS'Vera Miles'
p115
aS'John Gavin'
p116
asI29
(lp117
S'William Holden'
p118
aS'Gloria Swanson'
p119
aS'Erich von Stroheim'
p120
asI30
(lp121
S'Edward Norton'
p122
aS'Edward Furlong'
p123
aS"Beverly D'Angelo"
p124
asI31
(lp125
S'Guy Pearce'
p126
aS'Carrie-Anne Moss'
p127
aS'Joe Pantoliano'
p128
asI32
(lp129
S'Marlon Brando'
p130
aS'Martin Sheen'
p131
aS'Robert Duvall'
p132
asI33
(lp133
S'Arnold Schwarzenegger'
p134
aS'Linda Hamilton'
p135
aS'Edward Furlong'
p136
asI34
(lp137
S'Tom Hanks'
p138
aS'Tom Sizemore'
p139
aS'Edward Burns'
p140
asI35
(lp141
S'Peter Sellers'
p142
aS'George C. Scott'
p143
aS'Sterling Hayden'
p144
asI36
(lp145
S'Virginia Cherrill'
p146
aS'Florence Lee'
p147
aS'Harry Myers'
p148
asI37
(lp149
S'Tom Skerritt'
p150
aS'Sigourney Weaver'
p151
aS'Veronica Cartwright'
p152
asI38
(lp153
S'Cary Grant'
p154
aS'Eva Marie Saint'
p155
aS'James Mason'
p156
asI39
(lp157
S'Daveigh Chase'
p158
aS'Suzanne Pleshette'
p159
aS'Susan Egan'
p160
asI40
(lp161
S'Charles Chaplin'
p162
aS'Paulette Goddard'
p163
aS'Henry Bergman'
p164
asI41
(lp165
S'Jamie Foxx'
p166
aS'Christoph Waltz'
p167
aS'Leonardo DiCaprio'
p168
asI42
(lp169
S'Joseph Cotten'
p170
aS'Dorothy Comingore'
p171
aS'Agnes Moorehead'
p172
asI43
(lp173
S'Michael J. Fox'
p174
aS'Christopher Lloyd'
p175
aS'Lea Thompson'
p176
asI44
(lp177
S'Jack Nicholson'
p178
aS'Shelley Duvall'
p179
aS'Danny Lloyd'
p180
asI45
(lp181
S'Christian Bale'
p182
aS'Gary Oldman'
p183
aS'Tom Hardy'
p184
asI46
(lp185
S'Adrien Brody'
p186
aS'Emilia Fox'
p187
aS'Frank Finlay'
p188
asI47
(lp189
S'Roberto Benigni'
p190
aS'Nicoletta Braschi'
p191
aS'Giorgio Cantarini'
p192
asI48
(lp193
S'Leonardo DiCaprio'
p194
aS'Matt Damon'
p195
aS'Jack Nicholson'
p196
asI49
(lp197
S'Peter Lorre'
p198
aS'Ellen Widmann'
p199
aS'Inge Landgut'
p200
asI50
(lp201
S'James Stewart'
p202
aS'Kim Novak'
p203
aS'Barbara Bel Geddes'
p204
asI51
(lp205
S'Kirk Douglas'
p206
aS'Ralph Meeker'
p207
aS'Adolphe Menjou'
p208
asI52
(lp209
S'Kevin Spacey'
p210
aS'Annette Bening'
p211
aS'Thora Birch'
p212
asI53
(lp213
S'Albert Brooks'
p214
aS'Robert De Niro'
p215
aS'Jodie Foster'
p216
asI54
(lp217
S'Fred MacMurray'
p218
aS'Barbara Stanwyck'
p219
aS'Edward G. Robinson'
p220
asI55
(lp221
S'Sigourney Weaver'
p222
aS'Carrie Henn'
p223
aS'Michael Biehn'
p224
asI56
(lp225
S'Tom Hanks'
p226
aS'Tim Allen'
p227
aS'Joan Cusack'
p228
asI57
(lp229
S'Tom Hanks'
p230
aS'David Morse'
p231
aS'Michael Clarke Duncan'
p232
asI58
(lp233
S'Russell Crowe'
p234
aS'Joaquin Phoenix'
p235
aS'Connie Nielsen'
p236
asI59
(lp237
S'Malcolm McDowell'
p238
aS'Patrick Magee'
p239
aS'Michael Bates'
p240
asI60
(lp241
S'Charles Chaplin'
p242
aS'Jack Oakie'
p243
aS'Reginald Gardiner'
p244
asI61
(lp245
S'Hugh Jackman'
p246
aS'Christian Bale'
p247
aS'Michael Caine'
p248
asI62
(lp249
S"Peter O'Toole"
p250
aS'Alec Guinness'
p251
aS'Anthony Quinn'
p252
asI63
(lp253
S'Gregory Peck'
p254
aS'John Megna'
p255
aS'Frank Overton'
p256
asI64
(lp257
S'Harvey Keitel'
p258
aS'Tim Roth'
p259
aS'Michael Madsen'
p260
asI65
(lp261
S'Antonella Attili'
p262
aS'Enzo Cannavale'
p263
aS'Isa Danieli'
p264
asI66
(lp265
S'Joseph Cotten'
p266
aS'Alida Valli'
p267
aS'Orson Welles'
p268
asI67
(lp269
S'Ellen Burstyn'
p270
aS'Jared Leto'
p271
aS'Jennifer Connelly'
p272
asI68
(lp273
S'Humphrey Bogart'
p274
aS'Walter Huston'
p275
aS'Tim Holt'
p276
asI69
(lp277
S'Matthew Broderick'
p278
aS'James Earl Jones'
p279
aS'Jeremy Irons'
p280
asI70
(lp281
S'Jim Carrey'
p282
aS'Kate Winslet'
p283
aS'Gerry Robert Byrne'
p284
asI71
(lp285
S'Robert De Niro'
p286
aS'James Woods'
p287
aS'Elizabeth McGovern'
p288
asI72
(lp289
S'Mark Hamill'
p290
aS'Harrison Ford'
p291
aS'Carrie Fisher'
p292
asI73
(lp293
S'Matthew Modine'
p294
aS'Adam Baldwin'
p295
aS"Vincent D'Onofrio"
p296
asI74
(lp297
S'Kevin Spacey'
p298
aS'Russell Crowe'
p299
aS'Guy Pearce'
p300
asI75
(lp301
S'Patrick McGoohan'
p302
aS'Sophie Marceau'
p303
aS'Angus Macfadyen'
p304
asI76
(lp305
S'Jack Nicholson'
p306
aS'Faye Dunaway'
p307
aS'John Huston'
p308
asI77
(lp309
S'Min-sik Choi'
p310
aS'Ji-tae Yu'
p311
aS'Hye-jeong Kang'
p312
asI78
(lp313
S'Gene Kelly'
p314
aS"Donald O'Connor"
p315
aS'Debbie Reynolds'
p316
asI79
(lp317
S'Graham Chapman'
p318
aS'John Cleese'
p319
aS'Eric Idle'
p320
asI80
(lp321
S'Marilyn Monroe'
p322
aS'Tony Curtis'
p323
aS'Jack Lemmon'
p324
asI81
(lp325
S'Lamberto Maggiorani'
p326
aS'Enzo Staiola'
p327
aS'Lianella Carell'
p328
asI82
(lp329
S'F. Murray Abraham'
p330
aS'Tom Hulce'
p331
aS'Elizabeth Berridge'
p332
asI83
(lp333
S'Keir Dullea'
p334
aS'Gary Lockwood'
p335
aS'William Sylvester'
p336
asI84
(lp337
S'Bette Davis'
p338
aS'Anne Baxter'
p339
aS'George Sanders'
p340
asI85
(lp341
S'Paul Newman'
p342
aS'Robert Redford'
p343
aS'Robert Shaw'
p344
asI86
(lp345
S'Clint Eastwood'
p346
aS'Gene Hackman'
p347
aS'Morgan Freeman'
p348
asI87
(lp349
S'Jack Lemmon'
p350
aS'Shirley MacLaine'
p351
aS'Fred MacMurray'
p352
asI88
(lp353
S'Harrison Ford'
p354
aS'Sean Connery'
p355
aS'Denholm Elliott'
p356
asI89
(lp357
S'Robert De Niro'
p358
aS'Cathy Moriarty'
p359
aS'Joe Pesci'
p360
asI90
(lp361
S'William Holden'
p362
aS'Alec Guinness'
p363
aS'Jack Hawkins'
p364
asI91
(lp365
S'Tyrone Power'
p366
aS'Marlene Dietrich'
p367
aS'Charles Laughton'
p368
asI92
(lp369
S'Tsutomu Tatsumi'
p370
aS'Ayano Shiraishi'
p371
aS'Yoshiko Shinohara'
p372
asI93
(lp373
S'Bruce Willis'
p374
aS'Bonnie Bedelia'
p375
aS'Reginald VelJohnson'
p376
asI94
(lp377
S'Christian Bale'
p378
aS'Michael Caine'
p379
aS'Liam Neeson'
p380
asI95
(lp381
S'Payman Maadi'
p382
aS'Leila Hatami'
p383
aS'Sareh Bayat'
p384
asI96
(lp385
S'Benicio Del Toro'
p386
aS'Dennis Farina'
p387
aS'Brad Pitt'
p388
asI97
(lp389
S'Bruno Ganz'
p390
aS'Alexandra Maria Lara'
p391
aS'Ulrich Matthes'
p392
asI98
(lp393
S'Steve McQueen'
p394
aS'James Garner'
p395
aS'Richard Attenborough'
p396
asI99
(lp397
S'Jean Arthur'
p398
aS'James Stewart'
p399
aS'Claude Rains'
p400
asI100
(lp401
S'Edward Asner'
p402
aS'Christopher Plummer'
p403
aS'Jordan Nagai'
p404
asI101
(lp405
S'Tom Hanks'
p406
aS'Tim Allen'
p407
aS'Don Rickles'
p408
asI102
(lp409
S'Marlon Brando'
p410
aS'Karl Malden'
p411
aS'Lee J. Cobb'
p412
asI103
(lp413
S'Anthony Hopkins'
p414
aS'John Hurt'
p415
aS'Anne Bancroft'
p416
asI104
(lp417
S'Al Pacino'
p418
aS'Robert De Niro'
p419
aS'Val Kilmer'
p420
asI105
(lp421
S'Buster Keaton'
p422
aS'Marion Mack'
p423
aS'Glen Cavender'
p424
asI106
(lp425
S'Humphrey Bogart'
p426
aS'Mary Astor'
p427
aS'Gladys George'
p428
asI107
(lp429
S'Harrison Ford'
p430
aS'Rutger Hauer'
p431
aS'Sean Young'
p432
asI108
(lp433
S'Laurence Olivier'
p434
aS'Joan Fontaine'
p435
aS'George Sanders'
p436
asI109
(lp437
S'Carl Miller'
p438
aS'Edna Purviance'
p439
aS'Jackie Coogan'
p440
asI110
(lp441
S'Clint Eastwood'
p442
aS'Christopher Carley'
p443
aS'Bee Vang'
p444
asI111
(lp445
S'Al Pacino'
p446
aS'Steven Bauer'
p447
aS'Michelle Pfeiffer'
p448
asI112
(lp449
S'William H. Macy'
p450
aS'Steve Buscemi'
p451
aS'Peter Stormare'
p452
asI113
(lp453
S'Tatsuya Nakadai'
p454
aS'Akira Terao'
p455
aS'Jinpachi Nezu'
p456
asI114
(lp457
S'Jeff Bridges'
p458
aS'John Goodman'
p459
aS'Julianne Moore'
p460
asI115
(lp461
S'Charlton Heston'
p462
aS'Janet Leigh'
p463
aS'Orson Welles'
p464
asI116
(lp465
S'Robert De Niro'
p466
aS'John Cazale'
p467
aS'John Savage'
p468
asI117
(lp469
S'Paul Newman'
p470
aS'George Kennedy'
p471
aS'J.D. Cannon'
p472
asI118
(lp473
S'Charles Chaplin'
p474
aS'Mack Swain'
p475
aS'Tom Murray'
p476
asI119
(lp477
S'Jason Flemyng'
p478
aS'Dexter Fletcher'
p479
aS'Nick Moran'
p480
asI120
(lp481
S'Tommy Lee Jones'
p482
aS'Javier Bardem'
p483
aS'Josh Brolin'
p484
asI121
(lp485
S'Clark Gable'
p486
aS'Claudette Colbert'
p487
aS'Walter Connolly'
p488
asI122
(lp489
S'Jessica Alba'
p490
aS'Clive Owen'
p491
aS'Mickey Rourke'
p492
asI123
(lp493
S'Farley Granger'
p494
aS'Ruth Roman'
p495
aS'Robert Walker'
p496
asI124
(lp497
S'Roy Scheider'
p498
aS'Robert Shaw'
p499
aS'Richard Dreyfuss'
p500
asI125
(lp501
S'Robert De Niro'
p502
aS'Sharon Stone'
p503
aS'Joe Pesci'
p504
asI126
(lp505
S'Bruce Willis'
p506
aS'Haley Joel Osment'
p507
aS'Toni Collette'
p508
asI127
(lp509
S'Keith David'
p510
aS'Tom Berenger'
p511
aS'Willem Dafoe'
p512
asI128
(lp513
S'Kurt Russell'
p514
aS'Wilford Brimley'
p515
aS'Keith David'
p516
asI129
(lp517
S'Ewan McGregor'
p518
aS'Ewen Bremner'
p519
aS'Jonny Lee Miller'
p520
asI130
(lp521
S'Paul Newman'
p522
aS'Robert Redford'
p523
aS'Katharine Ross'
p524
asI131
(lp525
S'Robert Downey Jr.'
p526
aS'Chris Evans'
p527
aS'Scarlett Johansson'
p528
asI132
(lp529
S'Gary Cooper'
p530
aS'Thomas Mitchell'
p531
aS'Lloyd Bridges'
p532
asI133
(lp533
S'Judy Garland'
p534
aS'Frank Morgan'
p535
aS'Ray Bolger'
p536
asI134
(lp537
S'Matt Damon'
p538
aS'Robin Williams'
p539
aS'Ben Affleck'
p540
asI135
(lp541
S'Xolani Mali'
p542
aS'Don Cheadle'
p543
aS'Sophie Okonedo'
p544
asI136
(lp545
S'Uma Thurman'
p546
aS'Daryl Hannah'
p547
aS'David Carradine'
p548
asI137
(lp549
S'Joel Edgerton'
p550
aS'Tom Hardy'
p551
aS'Nick Nolte'
p552
asI138
(lp553
S'Woody Allen'
p554
aS'Diane Keaton'
p555
aS'Tony Roberts'
p556
asI139
(lp557
S'Thomas Mitchell'
p558
aS"Barbara O'Neil"
p559
aS'Vivien Leigh'
p560
asI140
(lp561
S'Henry Fonda'
p562
aS'Jane Darwell'
p563
aS'John Carradine'
p564
asI141
(lp565
S'Cary Grant'
p566
aS'Ingrid Bergman'
p567
aS'Claude Rains'
p568
asI142
(lp569
S'Toshiyuki Amagasa'
p570
aS'Paul Butcher'
p571
aS'Noriko Hidaka'
p572
asI143
(lp573
S'Emile Hirsch'
p574
aS'Marcia Gay Harden'
p575
aS'Catherine Keener'
p576
asI144
(lp577
S'Natalie Portman'
p578
aS'Hugo Weaving'
p579
aS'Stephen Rea'
p580
asI145
(lp581
S'Graham Chapman'
p582
aS'John Cleese'
p583
aS'Terry Gilliam'
p584
asI146
(lp585
S'Albert Brooks'
p586
aS'Ellen DeGeneres'
p587
aS'Alexander Gould'
p588
asI147
(lp589
S'Jay Baruchel'
p590
aS'Gerard Butler'
p591
aS'Craig Ferguson'
p592
asI148
(lp593
S'Ray Milland'
p594
aS'Grace Kelly'
p595
aS'Robert Cummings'
p596
asI149
(lp597
S'Colin Firth'
p598
aS'Helena Bonham Carter'
p599
aS'Derek Jacobi'
p600
asI150
(lp601
S'Daniel Day-Lewis'
p602
aS'Martin Stringer'
p603
aS'Paul Dano'
p604
asI151
(lp605
S'Humphrey Bogart'
p606
aS'Lauren Bacall'
p607
aS'John Ridgely'
p608
asI152
(lp609
S'Robert Mitchum'
p610
aS'Shelley Winters'
p611
aS'Lillian Gish'
p612
asI153
(lp613
S'Faye Dunaway'
p614
aS'William Holden'
p615
aS'Peter Finch'
p616
asI154
(lp617
S'Arnold Schwarzenegger'
p618
aS'Michael Biehn'
p619
aS'Linda Hamilton'
p620
asI155
(lp621
S'Charlton Heston'
p622
aS'Jack Hawkins'
p623
aS'Haya Harareet'
p624
asI156
(lp625
S'Clint Eastwood'
p626
aS'Hilary Swank'
p627
aS'Morgan Freeman'
p628
asI157
(lp629
S'Wil Wheaton'
p630
aS'River Phoenix'
p631
aS'Corey Feldman'
p632
asI158
(lp633
S'Myrna Loy'
p634
aS'Fredric March'
p635
aS'Dana Andrews'
p636
asI159
(lp637
S'Bill Murray'
p638
aS'Andie MacDowell'
p639
aS'Chris Elliott'
p640
asI160
(lp641
S'Jake Gyllenhaal'
p642
aS'Holmes Osborne'
p643
aS'Mary McDonnell'
p644
asI161
(lp645
S'Joseph Melito'
p646
aS'Bruce Willis'
p647
aS'Madeleine Stowe'
p648
asI162
(lp649
S'Penelope Allen'
p650
aS'Sully Boyar'
p651
aS'John Cazale'
p652
asI163
(lp653
S'Toni Collette'
p654
aS'Philip Seymour Hoffman'
p655
aS'Barry Humphries'
p656
asI164
(lp657
S'Natalie Portman'
p658
aS'Mila Kunis'
p659
aS'Vincent Cassel'
p660
asI165
(lp661
S'Bibi Andersson'
p662
aS'Liv Ullmann'
p663
aS'Margaretha Krook'
p664
asI166
(lp665
S'Ben Kingsley'
p666
aS'Candice Bergen'
p667
aS'Edward Fox'
p668
asI167
(lp669
S'Sterling Hayden'
p670
aS'Coleen Gray'
p671
aS'Vince Edwards'
p672
asI168
(lp673
S'Anne Bancroft'
p674
aS'Dustin Hoffman'
p675
aS'Katharine Ross'
p676
asI169
(lp677
S'Russell Crowe'
p678
aS'Ed Harris'
p679
aS'Jennifer Connelly'
p680
asI170
(lp681
S'Cary Elwes'
p682
aS'Mandy Patinkin'
p683
aS'Chris Sarandon'
p684
asI171
(lp685
S'Ian McKellen'
p686
aS'Martin Freeman'
p687
aS'Richard Armitage'
p688
asI172
(lp689
S'Suraj Sharma'
p690
aS'Irrfan Khan'
p691
aS'Adil Hussain'
p692
asI173
(lp693
S'Paul Newman'
p694
aS'Jackie Gleason'
p695
aS'Piper Laurie'
p696
asI174
(lp697
S'Elizabeth Taylor'
p698
aS'Richard Burton'
p699
aS'George Segal'
p700
asI175
(lp701
S'Dev Patel'
p702
aS'Saurabh Shukla'
p703
aS'Anil Kapoor'
p704
asI176
(lp705
S'Anthony Quinn'
p706
aS'Giulietta Masina'
p707
aS'Richard Basehart'
p708
asI177
(lp709
S'Sylvester Stallone'
p710
aS'Talia Shire'
p711
aS'Burt Young'
p712
asI178
(lp713
S'James Stewart'
p714
aS'Lee Remick'
p715
aS'Ben Gazzara'
p716
asI179
(lp717
S'Frank Sinatra'
p718
aS'Laurence Harvey'
p719
aS'Janet Leigh'
p720
asI180
(lp721
S'Ellen Burstyn'
p722
aS'Max von Sydow'
p723
aS'Lee J. Cobb'
p724
asI181
(lp725
S'William Holden'
p726
aS'Ernest Borgnine'
p727
aS'Robert Ryan'
p728
asI182
(lp729
S'John Wayne'
p730
aS'James Stewart'
p731
aS'Vera Miles'
p732
asI183
(lp733
S'Dick Hogan'
p734
aS'John Dall'
p735
aS'Farley Granger'
p736
asI184
(lp737
S'William Holden'
p738
aS'Don Taylor'
p739
aS'Otto Preminger'
p740
asI185
(lp741
S"Ryan O'Neal"
p742
aS'Marisa Berenson'
p743
aS'Patrick Magee'
p744
asI186
(lp745
S'Laurence Olivier'
p746
aS'Michael Caine'
p747
aS'Alec Cawthorne'
p748
asI187
(lp749
S'Alisa Freyndlikh'
p750
aS'Aleksandr Kaydanovskiy'
p751
aS'Anatoliy Solonitsyn'
p752
asI188
(lp753
S'Alison Crosbie'
p754
aS'Daniel Day-Lewis'
p755
aS'Philip King'
p756
asI189
(lp757
S'Andy Lau'
p758
aS'Tony Leung Chiu Wai'
p759
aS'Anthony Wong Chau-Sang'
p760
asI190
(lp761
S'Gregory Peck'
p762
aS'Audrey Hepburn'
p763
aS'Eddie Albert'
p764
asI191
(lp765
S'Kang-ho Song'
p766
aS'Sang-kyung Kim'
p767
aS'Roe-ha Kim'
p768
asI192
(lp769
S'Johnny Depp'
p770
aS'Geoffrey Rush'
p771
aS'Orlando Bloom'
p772
asI193
(lp773
S'Jim Carrey'
p774
aS'Laura Linney'
p775
aS'Noah Emmerich'
p776
asI194
(lp777
S'John Goodman'
p778
aS'Billy Crystal'
p779
aS'Mary Gibbs'
p780
asI195
(lp781
S'Sharlto Copley'
p782
aS'Jason Cope'
p783
aS'Nathalie Boltt'
p784
asI196
(lp785
S'Michael Gambon'
p786
aS'Daniel Radcliffe'
p787
aS'Rupert Grint'
p788
asI197
(lp789
S'Donnie Yen'
p790
aS'Simon Yam'
p791
aS'Ka Tung Lam'
p792
asI198
(lp793
S'Patton Oswalt'
p794
aS'Ian Holm'
p795
aS'Lou Romano'
p796
asI199
(lp797
S'Chris Pine'
p798
aS'Zachary Quinto'
p799
aS'Leonard Nimoy'
p800
asI200
(lp801
S'Vivien Leigh'
p802
aS'Marlon Brando'
p803
aS'Kim Hunter'
p804
asI201
(lp805
S'Sam Neill'
p806
aS'Laura Dern'
p807
aS'Jeff Goldblum'
p808
asI202
(lp809
S'Louis Wolheim'
p810
aS'Lew Ayres'
p811
aS'John Wray'
p812
asI203
(lp813
S'Leonardo DiCaprio'
p814
aS'Mark Ruffalo'
p815
aS'Ben Kingsley'
p816
asI204
(lp817
S"Paige O'Hara"
p818
aS'Robby Benson'
p819
aS'Richard White'
p820
asI205
(lp821
S'Dustin Hoffman'
p822
aS'Tom Cruise'
p823
aS'Valeria Golino'
p824
asI206
(lp825
S'Aamir Khan'
p826
aS'Kareena Kapoor'
p827
aS'Madhavan'
p828
asI207
(lp829
S'Mia Farrow'
p830
aS'John Cassavetes'
p831
aS'Ruth Gordon'
p832
asI208
(lp833
S'James Stewart'
p834
aS'Josephine Hull'
p835
aS'Peggy Dow'
p836
asI209
(lp837
S'Darsheel Safary'
p838
aS'Aamir Khan'
p839
aS'Tanay Chheda'
p840
asI210
(lp841
S'Sean Penn'
p842
aS'Tim Robbins'
p843
aS'Kevin Bacon'
p844
asI211
(lp845
S'Steve McQueen'
p846
aS'Dustin Hoffman'
p847
aS'Victor Jory'
p848
asI212
(lp849
S'Woody Allen'
p850
aS'Diane Keaton'
p851
aS'Michael Murphy'
p852
asI213
(lp853
S'Logan Lerman'
p854
aS'Ezra Miller'
p855
aS'Paul Rudd'
p856
asI214
(lp857
S'Yeong-su Oh'
p858
aS'Ki-duk Kim'
p859
aS'Young-min Kim'
p860
asI215
(lp861
S'Emma Stone'
p862
aS'Viola Davis'
p863
aS'Bryce Dallas Howard'
p864
asI216
(lp865
S'Mickey Rourke'
p866
aS'Marisa Tomei'
p867
aS'Evan Rachel Wood'
p868
asI217
(lp869
S'Kevin Costner'
p870
aS'Sean Connery'
p871
aS'Charles Martin Smith'
p872
asI218
(lp873
S'Ulrich Thomsen'
p874
aS'Henning Moritzen'
p875
aS'Thomas Bo Larsen'
p876
asI219
(lp877
S'Aleksandr Antonov'
p878
aS'Vladimir Barsky'
p879
aS'Grigori Aleksandrov'
p880
as.