(dp0
I0
S'The Shawshank Redemption'
p1
sI1
S'The Godfather'
p2
sI2
S'The Godfather: Part II'
p3
sI3
S'Pulp Fiction'
p4
sI4
S'The Good, the Bad and the Ugly'
p5
sI5
S'12 Angry Men'
p6
sI6
S'The Dark Knight'
p7
sI7
S"Schindler's List"
p8
sI8
S'The Lord of the Rings: The Return of the King'
p9
sI9
S'Fight Club'
p10
sI10
S'Star Wars: Episode V - The Empire Strikes Back'
p11
sI11
S'The Lord of the Rings: The Fellowship of the Ring'
p12
sI12
S"One Flew Over the Cuckoo's Nest"
p13
sI13
S'Inception'
p14
sI14
S'Goodfellas'
p15
sI15
S'Star Wars'
p16
sI16
S'Forrest Gump'
p17
sI17
S'The Matrix'
p18
sI18
S'The Lord of the Rings: The Two Towers'
p19
sI19
S'City of God'
p20
sI20
S'Se7en'
p21
sI21
S'The Silence of the Lambs'
p22
sI22
S'Once Upon a Time in the West'
p23
sI23
S'Casablanca'
p24
sI24
S'The Usual Suspects'
p25
sI25
S'Raiders of the Lost Ark'
p26
sI26
S'Rear Window'
p27
sI27
S"It's a Wonderful Life"
p28
sI28
S'Psycho'
p29
sI29
S'Sunset Blvd.'
p30
sI30
S'American History X'
p31
sI31
S'Memento'
p32
sI32
S'Apocalypse Now'
p33
sI33
S'Terminator 2: Judgment Day'
p34
sI34
S'Saving Private Ryan'
p35
sI35
S'Dr. Strangelove or: How I Learned to Stop Worrying and Love the Bomb'
p36
sI36
S'City Lights'
p37
sI37
S'Alien'
p38
sI38
S'North by Northwest'
p39
sI39
S'Spirited Away'
p40
sI40
S'Modern Times'
p41
sI41
S'Django Unchained'
p42
sI42
S'Citizen Kane'
p43
sI43
S'Back to the Future'
p44
sI44
S'The Shining'
p45
sI45
S'The Dark Knight Rises'
p46
sI46
S'The Pianist'
p47
sI47
S'Life Is Beautiful'
p48
sI48
S'The Departed'
p49
sI49
S'M'
p50
sI50
S'Vertigo'
p51
sI51
S'Paths of Glory'
p52
sI52
S'American Beauty'
p53
sI53
S'Taxi Driver'
p54
sI54
S'Double Indemnity'
p55
sI55
S'Aliens'
p56
sI56
S'Toy Story 3'
p57
sI57
S'The Green Mile'
p58
sI58
S'Gladiator'
p59
sI59
S'A Clockwork Orange'
p60
sI60
S'The Great Dictator'
p61
sI61
S'The Prestige'
p62
sI62
S'Lawrence of Arabia'
p63
sI63
S'To Kill a Mockingbird'
p64
sI64
S'Reservoir Dogs'
p65
sI65
S'Cinema Paradiso'
p66
sI66
S'The Third Man'
p67
sI67
S'Requiem for a Dream'
p68
sI68
S'The Treasure of the Sierra Madre'
p69
sI69
S'The Lion King'
p70
sI70
S'Eternal Sunshine of the Spotless Mind'
p71
sI71
S'Once Upon a Time in America'
p72
sI72
S'Star Wars: Episode VI - Return of the Jedi'
p73
sI73
S'Full Metal Jacket'
p74
sI74
S'L.A. Confidential'
p75
sI75
S'Braveheart'
p76
sI76
S'Chinatown'
p77
sI77
S'Oldboy'
p78
sI78
S"Singin' in the Rain"
p79
sI79
S'Monty Python and the Holy Grail'
p80
sI80
S'Some Like It Hot'
p81
sI81
S'Bicycle Thieves'
p82
sI82
S'Amadeus'
p83
sI83
S'2001: A Space Odyssey'
p84
sI84
S'All About Eve'
p85
sI85
S'The Sting'
p86
sI86
S'Unforgiven'
p87
sI87
S'The Apartment'
p88
sI88
S'Indiana Jones and the Last Crusade'
p89
sI89
S'Raging Bull'
p90
sI90
S'The Bridge on the River Kwai'
p91
sI91
S'Witness for the Prosecution'
p92
sI92
S'Grave of the Fireflies'
p93
sI93
S'Die Hard'
p94
sI94
S'Batman Begins'
p95
sI95
S'A Separation'
p96
sI96
S'Snatch.'
p97
sI97
S'Downfall'
p98
sI98
S'The Great Escape'
p99
sI99
S'Mr. Smith Goes to Washington'
p100
sI100
S'Up'
p101
sI101
S'Toy Story'
p102
sI102
S'On the Waterfront'
p103
sI103
S'The Elephant Man'
p104
sI104
S'Heat'
p105
sI105
S'The General'
p106
sI106
S'The Maltese Falcon'
p107
sI107
S'Blade Runner'
p108
sI108
S'Rebecca'
p109
sI109
S'The Kid'
p110
sI110
S'Gran Torino'
p111
sI111
S'Scarface'
p112
sI112
S'Fargo'
p113
sI113
S'Ran'
p114
sI114
S'The Big Lebowski'
p115
sI115
S'Touch of Evil'
p116
sI116
S'The Deer Hunter'
p117
sI117
S'Cool Hand Luke'
p118
sI118
S'The Gold Rush'
p119
sI119
S'Lock, Stock and Two Smoking Barrels'
p120
sI120
S'No Country for Old Men'
p121
sI121
S'It Happened One Night'
p122
sI122
S'Sin City'
p123
sI123
S'Strangers on a Train'
p124
sI124
S'Jaws'
p125
sI125
S'Casino'
p126
sI126
S'The Sixth Sense'
p127
sI127
S'Platoon'
p128
sI128
S'The Thing'
p129
sI129
S'Trainspotting'
p130
sI130
S'Butch Cassidy and the Sundance Kid'
p131
sI131
S'The Avengers'
p132
sI132
S'High Noon'
p133
sI133
S'The Wizard of Oz'
p134
sI134
S'Good Will Hunting'
p135
sI135
S'Hotel Rwanda'
p136
sI136
S'Kill Bill: Vol. 1'
p137
sI137
S'Warrior'
p138
sI138
S'Annie Hall'
p139
sI139
S'Gone with the Wind'
p140
sI140
S'The Grapes of Wrath'
p141
sI141
S'Notorious'
p142
sI142
S'My Neighbor Totoro'
p143
sI143
S'Into the Wild'
p144
sI144
S'V for Vendetta'
p145
sI145
S'Life of Brian'
p146
sI146
S'Finding Nemo'
p147
sI147
S'How to Train Your Dragon'
p148
sI148
S'Dial M for Murder'
p149
sI149
S"The King's Speech"
p150
sI150
S'There Will Be Blood'
p151
sI151
S'The Big Sleep'
p152
sI152
S'The Night of the Hunter'
p153
sI153
S'Network'
p154
sI154
S'The Terminator'
p155
sI155
S'Ben-Hur'
p156
sI156
S'Million Dollar Baby'
p157
sI157
S'Stand by Me'
p158
sI158
S'The Best Years of Our Lives'
p159
sI159
S'Groundhog Day'
p160
sI160
S'Donnie Darko'
p161
sI161
S'Twelve Monkeys'
p162
sI162
S'Dog Day Afternoon'
p163
sI163
S'Mary and Max'
p164
sI164
S'Black Swan'
p165
sI165
S'Persona'
p166
sI166
S'Gandhi'
p167
sI167
S'The Killing'
p168
sI168
S'The Graduate'
p169
sI169
S'A Beautiful Mind'
p170
sI170
S'The Princess Bride'
p171
sI171
S'The Hobbit: An Unexpected Journey'
p172
sI172
S'Life of Pi'
p173
sI173
S'The Hustler'
p174
sI174
S"Who's Afraid of Virginia Woolf?"
p175
sI175
S'Slumdog Millionaire'
p176
sI176
S'La Strada'
p177
sI177
S'Rocky'
p178
sI178
S'Anatomy of a Murder'
p179
sI179
S'The Manchurian Candidate'
p180
sI180
S'The Exorcist'
p181
sI181
S'The Wild Bunch'
p182
sI182
S'The Man Who Shot Liberty Valance'
p183
sI183
S'Rope'
p184
sI184
S'Stalag 17'
p185
sI185
S'Barry Lyndon'
p186
sI186
S'Sleuth'
p187
sI187
S'Stalker'
p188
sI188
S'In the Name of the Father'
p189
sI189
S'Infernal Affairs'
p190
sI190
S'Roman Holiday'
p191
sI191
S'Memories of Murder'
p192
sI192
S'Pirates of the Caribbean: The Curse of the Black Pearl'
p193
sI193
S'The Truman Show'
p194
sI194
S'Monsters, Inc.'
p195
sI195
S'District 9'
p196
sI196
S'Harry Potter and the Deathly Hallows: Part 2'
p197
sI197
S'Ip Man'
p198
sI198
S'Ratatouille'
p199
sI199
S'Star Trek'
p200
sI200
S'A Streetcar Named Desire'
p201
sI201
S'Jurassic Park'
p202
sI202
S'All Quiet on the Western Front'
p203
sI203
S'Shutter Island'
p204
sI204
S'Beauty and the Beast'
p205
sI205
S'Rain Man'
p206
sI206
S'3 Idiots'
p207
sI207
S"Rosemary's Baby"
p208
sI208
S'Harvey'
p209
sI209
S'Like Stars on Earth'
p210
sI210
S'Mystic River'
p211
sI211
S'Papillon'
p212
sI212
S'Manhattan'
p213
sI213
S'The Perks of Being a Wallflower'
p214
sI214
S'Spring, Summer, Fall, Winter... and Spring'
p215
sI215
S'The Help'
p216
sI216
S'The Wrestler'
p217
sI217
S'The Untouchables'
p218
sI218
S'The Celebration'
p219
sI219
S'Battleship Potemkin'
p220
s.