(dp0
I1
S"['Crime', 'Drama']"
p1
sI2
S"['Crime', 'Drama']"
p2
sI3
S"['Crime', 'Drama']"
p3
sI4
S"['Crime', 'Thriller']"
p4
sI5
S"['Adventure', 'Western']"
p5
sI6
S"['Drama']"
p6
sI7
S"['Action', 'Crime', 'Drama']"
p7
sI8
S"['Biography', 'Drama', 'History']"
p8
sI9
S"['Action', 'Adventure', 'Fantasy']"
p9
sI10
S"['Drama']"
p10
sI11
S"['Action', 'Adventure', 'Sci-Fi']"
p11
sI12
S"['Action', 'Adventure', 'Fantasy']"
p12
sI13
S"['Drama']"
p13
sI14
S"['Action', 'Adventure', 'Mystery']"
p14
sI15
S"['Biography', 'Crime', 'Drama']"
p15
sI16
S"['Action', 'Adventure', 'Fantasy']"
p16
sI18
S"['Drama', 'Romance']"
p17
sI19
S"['Action', 'Adventure', 'Sci-Fi']"
p18
sI20
S"['Action', 'Adventure', 'Fantasy']"
p19
sI21
S"['Crime', 'Drama']"
p20
sI22
S"['Crime', 'Mystery', 'Thriller']"
p21
sI23
S"['Crime', 'Drama', 'Thriller']"
p22
sI24
S"['Adventure', 'Western']"
p23
sI25
S"['Drama', 'Romance', 'War']"
p24
sI26
S"['Crime', 'Mystery', 'Thriller']"
p25
sI27
S"['Action', 'Adventure']"
p26
sI28
S"['Mystery', 'Thriller']"
p27
sI29
S"['Drama', 'Family', 'Fantasy']"
p28
sI30
S"['Horror', 'Mystery', 'Thriller']"
p29
sI32
S"['Drama', 'Film-Noir']"
p30
sI33
S"['Crime', 'Drama']"
p31
sI34
S"['Mystery', 'Thriller']"
p32
sI35
S"['Drama', 'War']"
p33
sI36
S"['Action', 'Sci-Fi', 'Thriller']"
p34
sI37
S"['Action', 'Drama', 'War']"
p35
sI38
S"['Comedy', 'War']"
p36
sI39
S"['Comedy', 'Drama', 'Romance']"
p37
sI40
S"['Horror', 'Sci-Fi']"
p38
sI41
S"['Action', 'Adventure', 'Mystery']"
p39
sI42
S"['Animation', 'Adventure', 'Family']"
p40
sI43
S"['Comedy', 'Drama']"
p41
sI44
S"['Adventure', 'Crime', 'Drama']"
p42
sI45
S"['Drama', 'Mystery']"
p43
sI46
S"['Adventure', 'Comedy', 'Sci-Fi']"
p44
sI47
S"['Horror', 'Mystery']"
p45
sI48
S"['Action', 'Crime', 'Thriller']"
p46
sI49
S"['Biography', 'Drama', 'History']"
p47
sI50
S"['Comedy', 'Drama', 'Romance']"
p48
sI51
S"['Crime', 'Thriller']"
p49
sI52
S"['Crime', 'Drama', 'Film-Noir']"
p50
sI53
S"['Mystery', 'Romance', 'Thriller']"
p51
sI54
S"['Drama', 'War']"
p52
sI55
S"['Drama']"
p53
sI56
S"['Crime', 'Drama']"
p54
sI57
S"['Crime', 'Drama', 'Film-Noir']"
p55
sI58
S"['Action', 'Adventure', 'Sci-Fi']"
p56
sI59
S"['Animation', 'Adventure', 'Comedy']"
p57
sI62
S"['Crime', 'Drama', 'Fantasy']"
p58
sI63
S"['Action', 'Adventure', 'Drama']"
p59
sI65
S"['Crime', 'Drama', 'Sci-Fi']"
p60
sI66
S"['Comedy', 'Drama', 'War']"
p61
sI68
S"['Drama', 'Mystery', 'Thriller']"
p62
sI69
S"['Adventure', 'Biography', 'Drama']"
p63
sI70
S"['Crime', 'Drama', 'Mystery']"
p64
sI71
S"['Crime', 'Thriller']"
p65
sI73
S"['Drama']"
p66
sI74
S"['Film-Noir', 'Mystery', 'Thriller']"
p67
sI75
S"['Drama']"
p68
sI76
S"['Action', 'Adventure', 'Drama']"
p69
sI77
S"['Animation', 'Adventure', 'Drama']"
p70
sI78
S"['Drama', 'Romance', 'Sci-Fi']"
p71
sI79
S"['Crime', 'Drama']"
p72
sI80
S"['Action', 'Adventure', 'Fantasy']"
p73
sI81
S"['Drama', 'War']"
p74
sI82
S"['Crime', 'Drama', 'Mystery']"
p75
sI83
S"['Action', 'Biography', 'Drama']"
p76
sI84
S"['Crime', 'Drama', 'Mystery']"
p77
sI85
S"['Drama', 'Mystery', 'Thriller']"
p78
sI86
S"['Comedy', 'Musical', 'Romance']"
p79
sI87
S"['Adventure', 'Comedy', 'Fantasy']"
p80
sI88
S"['Comedy']"
p81
sI90
S"['Crime', 'Drama']"
p82
sI91
S"['Biography', 'Drama', 'Music']"
p83
sI94
S"['Adventure', 'Mystery', 'Sci-Fi']"
p84
sI95
S"['Drama']"
p85
sI96
S"['Comedy', 'Crime', 'Drama']"
p86
sI97
S"['Western']"
p87
sI98
S"['Comedy', 'Drama', 'Romance']"
p88
sI99
S"['Action', 'Adventure']"
p89
sI100
S"['Biography', 'Drama', 'Sport']"
p90
sI101
S"['Adventure', 'Drama', 'History']"
p91
sI102
S"['Drama', 'Mystery']"
p92
sI103
S"['Animation', 'Drama', 'War']"
p93
sI104
S"['Action', 'Thriller']"
p94
sI105
S"['Action', 'Adventure', 'Crime']"
p95
sI106
S"['Drama']"
p96
sI109
S"['Crime', 'Thriller']"
p97
sI111
S"['Biography', 'Drama', 'History']"
p98
sI113
S"['Adventure', 'Drama', 'History']"
p99
sI114
S"['Drama']"
p100
sI115
S"['Animation', 'Adventure', 'Comedy']"
p101
sI116
S"['Animation', 'Adventure', 'Comedy']"
p102
sI117
S"['Crime', 'Drama']"
p103
sI118
S"['Biography', 'Drama']"
p104
sI120
S"['Action', 'Crime', 'Drama']"
p105
sI121
S"['Action', 'Adventure', 'Comedy']"
p106
sI122
S"['Crime', 'Drama', 'Film-Noir']"
p107
sI123
S"['Drama', 'Sci-Fi', 'Thriller']"
p108
sI124
S"['Drama', 'Mystery', 'Thriller']"
p109
sI125
S"['Comedy', 'Drama', 'Family']"
p110
sI126
S"['Drama']"
p111
sI128
S"['Crime', 'Drama', 'Thriller']"
p112
sI129
S"['Crime', 'Drama']"
p113
sI130
S"['Action', 'Drama', 'War']"
p114
sI131
S"['Comedy', 'Crime']"
p115
sI132
S"['Crime', 'Film-Noir', 'Thriller']"
p116
sI133
S"['Drama', 'War']"
p117
sI134
S"['Crime', 'Drama']"
p118
sI135
S"['Adventure', 'Comedy', 'Family']"
p119
sI136
S"['Crime', 'Thriller']"
p120
sI137
S"['Crime', 'Drama', 'Thriller']"
p121
sI138
S"['Comedy', 'Romance']"
p122
sI139
S"['Crime', 'Thriller']"
p123
sI140
S"['Crime', 'Film-Noir', 'Thriller']"
p124
sI141
S"['Adventure', 'Horror', 'Thriller']"
p125
sI142
S"['Biography', 'Crime', 'Drama']"
p126
sI143
S"['Drama', 'Mystery', 'Thriller']"
p127
sI144
S"['Action', 'Drama', 'War']"
p128
sI145
S"['Horror', 'Mystery', 'Sci-Fi']"
p129
sI146
S"['Crime', 'Drama']"
p130
sI147
S"['Adventure', 'Biography', 'Crime']"
p131
sI148
S"['Action']"
p132
sI149
S"['Drama', 'Western']"
p133
sI150
S"['Adventure', 'Family', 'Fantasy']"
p134
sI151
S"['Drama']"
p135
sI152
S"['Biography', 'Drama', 'History']"
p136
sI153
S"['Action', 'Crime', 'Thriller']"
p137
sI154
S"['Drama', 'Sport']"
p138
sI156
S"['Comedy', 'Drama', 'Romance']"
p139
sI157
S"['Drama', 'Romance', 'War']"
p140
sI158
S"['Drama']"
p141
sI159
S"['Animation', 'Family', 'Fantasy']"
p142
sI160
S"['Drama', 'Romance', 'Thriller']"
p143
sI161
S"['Action', 'Fantasy', 'Thriller']"
p144
sI162
S"['Adventure', 'Biography', 'Drama']"
p145
sI163
S"['Comedy']"
p146
sI164
S"['Animation', 'Adventure', 'Comedy']"
p147
sI165
S"['Animation', 'Adventure', 'Comedy']"
p148
sI166
S"['Crime', 'Mystery', 'Thriller']"
p149
sI167
S"['Biography', 'Drama', 'History']"
p150
sI168
S"['Drama']"
p151
sI169
S"['Crime', 'Film-Noir', 'Mystery']"
p152
sI170
S"['Drama', 'Film-Noir', 'Thriller']"
p153
sI171
S"['Drama']"
p154
sI172
S"['Action', 'Sci-Fi']"
p155
sI173
S"['Action', 'Adventure', 'Drama']"
p156
sI174
S"['Drama', 'Sport']"
p157
sI175
S"['Adventure', 'Drama']"
p158
sI176
S"['Drama', 'Romance', 'War']"
p159
sI177
S"['Comedy', 'Drama', 'Fantasy']"
p160
sI178
S"['Drama', 'Mystery', 'Sci-Fi']"
p161
sI179
S"['Mystery', 'Sci-Fi', 'Thriller']"
p162
sI180
S"['Crime', 'Drama']"
p163
sI181
S"['Animation', 'Comedy', 'Drama']"
p164
sI184
S"['Drama', 'Mystery', 'Thriller']"
p165
sI186
S"['Drama']"
p166
sI187
S"['Biography', 'Drama', 'History']"
p167
sI189
S"['Crime', 'Film-Noir', 'Thriller']"
p168
sI190
S"['Comedy', 'Drama', 'Romance']"
p169
sI191
S"['Biography', 'Drama']"
p170
sI192
S"['Adventure', 'Fantasy']"
p171
sI193
S"['Adventure', 'Comedy', 'Family']"
p172
sI194
S"['Adventure', 'Drama', 'Fantasy']"
p173
sI196
S"['Drama', 'Sport']"
p174
sI197
S"['Comedy', 'Drama']"
p175
sI198
S"['Drama', 'Romance', 'Thriller']"
p176
sI199
S"['Drama']"
p177
sI200
S"['Drama', 'Sport']"
p178
sI201
S"['Crime', 'Drama', 'Mystery']"
p179
sI202
S"['Drama', 'Mystery', 'Romance']"
p180
sI203
S"['Horror', 'Thriller']"
p181
sI204
S"['Western']"
p182
sI205
S"['Drama', 'Romance', 'Western']"
p183
sI206
S"['Crime', 'Drama', 'Thriller']"
p184
sI207
S"['Comedy', 'Drama', 'Thriller']"
p185
sI208
S"['Adventure', 'Drama', 'Romance']"
p186
sI210
S"['Mystery', 'Thriller']"
p187
sI211
S"['Adventure', 'Drama', 'Fantasy']"
p188
sI212
S"['Biography', 'Drama', 'Thriller']"
p189
sI213
S"['Crime', 'Mystery', 'Thriller']"
p190
sI214
S"['Comedy', 'Drama', 'Romance']"
p191
sI215
S"['Action', 'Adventure', 'Fantasy']"
p192
sI216
S"['Comedy', 'Drama', 'Sci-Fi']"
p193
sI217
S"['Crime', 'Drama', 'Mystery']"
p194
sI218
S"['Animation', 'Adventure', 'Comedy']"
p195
sI219
S"['Action', 'Sci-Fi', 'Thriller']"
p196
sI221
S"['Adventure', 'Family', 'Fantasy']"
p197
sI222
S"['Action', 'Biography', 'Drama']"
p198
sI224
S"['Animation', 'Comedy', 'Family']"
p199
sI225
S"['Action', 'Adventure', 'Sci-Fi']"
p200
sI226
S"['Drama']"
p201
sI228
S"['Adventure', 'Sci-Fi']"
p202
sI229
S"['Drama', 'War']"
p203
sI230
S"['Mystery', 'Thriller']"
p204
sI231
S"['Animation', 'Family', 'Fantasy']"
p205
sI232
S"['Drama']"
p206
sI234
S"['Comedy', 'Drama', 'Romance']"
p207
sI235
S"['Drama', 'Horror', 'Mystery']"
p208
sI237
S"['Comedy', 'Drama']"
p209
sI238
S"['Drama']"
p210
sI239
S"['Crime', 'Drama', 'Mystery']"
p211
sI240
S"['Biography', 'Crime', 'Drama']"
p212
sI241
S"['Comedy', 'Drama', 'Romance']"
p213
sI242
S"['Drama', 'Romance']"
p214
sI244
S"['Drama']"
p215
sI245
S"['Drama']"
p216
sI247
S"['Drama', 'Romance', 'Sport']"
p217
sI248
S"['Crime', 'Drama', 'History']"
p218
sI249
S"['Drama']"
p219
sI250
S"['Drama', 'Romance']"
p220
s.