(dp0
I0
c__builtin__
set
p1
((lp2
S'acts'
p3
aS'Bob Gunton'
p4
aS'redemption'
p5
aS'Frank Darabont'
p6
aS'men'
p7
aS'number'
p8
aS'Tim Robbins'
p9
aS'years'
p10
aS'Drama'
p11
aS'Morgan Freeman'
p12
aS'decency'
p13
aS'Crime'
p14
aS'bond'
p15
aS'solace'
p16
atp17
Rp18
sI1
g1
((lp19
S'control'
p20
aS'aging'
p21
aS'son'
p22
aS'Francis Ford Coppola'
p23
aS'clandestine'
p24
aS'James Caan'
p25
aS'Al Pacino'
p26
aS'patriarch'
p27
aS'dynasty'
p28
aS'Drama'
p29
aS'Marlon Brando'
p30
aS'Crime'
p31
aS'transfers'
p32
aS'empire'
p33
aS'crime'
p34
aS'reluctant'
p35
atp36
Rp37
sI2
g1
((lp38
S'Al Pacino'
p39
aS'Lake'
p40
aS'Robert Duvall'
p41
aS'pre-revolution'
p42
aS'Tahoe'
p43
aS'New'
p44
aS'Francis Ford Coppola'
p45
aS'Diane Keaton'
p46
aS'Cuba'
p47
aS'crime'
p48
aS'Corleone'
p49
aS'York'
p50
aS'Vito'
p51
aS'grip'
p52
aS'life'
p53
aS'Michael'
p54
aS'Drama'
p55
aS'syndicate'
p56
aS'son'
p57
aS'career'
p58
aS'tightens'
p59
aS'Crime'
p60
aS'Nevada'
p61
atp62
Rp63
sI3
g1
((lp64
S'Bruce Willis'
p65
aS'violence'
p66
aS'diner'
p67
aS'wife'
p68
aS'Samuel L. Jackson'
p69
aS'tales'
p70
aS'men'
p71
aS'Quentin Tarantino'
p72
aS'Crime'
p73
aS'gangster'
p74
aS'boxer'
p75
aS'lives'
p76
aS'bandits'
p77
aS'pair'
p78
aS'mob'
p79
aS'John Travolta'
p80
aS'Thriller'
p81
aS'redemption'
p82
atp83
Rp84
sI4
g1
((lp85
S'alliance'
p86
aS'scam'
p87
aS'gold'
p88
aS'Eli Wallach'
p89
aS'Sergio Leone'
p90
aS'men'
p91
aS'cemetery'
p92
aS'race'
p93
aS'Adventure'
p94
aS'joins'
p95
aS'bounty'
p96
aS'fortune'
p97
aS'Lee Van Cleef'
p98
aS'remote'
p99
aS'Clint Eastwood'
p100
aS'Western'
p101
atp102
Rp103
sI5
g1
((lp104
S'case'
p105
aS'murder'
p106
aS'court'
p107
aS'Sidney Lumet'
p108
aS'Lee J. Cobb'
p109
aS'Drama'
p110
aS'trial'
p111
aS'convince'
p112
aS'juror'
p113
aS'others'
p114
aS'dissenting'
p115
aS'John Fiedler'
p116
aS'Martin Balsam'
p117
atp118
Rp119
sI6
g1
((lp120
S'box'
p121
aS'Drama'
p122
aS'Christian Bale'
p123
aS'bent'
p124
aS'launch'
p125
aS'Batman'
p126
aS'level'
p127
aS'Gotham'
p128
aS'clown'
p129
aS'Dent'
p130
aS'Joker'
p131
aS'assault'
p132
aS'Gordon'
p133
aS'Harvey'
p134
aS'Action'
p135
aS'mob'
p136
aS'heroes'
p137
aS'Crime'
p138
aS'Christopher Nolan'
p139
aS'Aaron Eckhart'
p140
aS'Heath Ledger'
p141
atp142
Rp143
sI7
g1
((lp144
S'Oskar'
p145
aS'Ralph Fiennes'
p146
aS'Ben Kingsley'
p147
aS'Poland'
p148
aS'Schindler'
p149
aS'workforce'
p150
aS'Steven Spielberg'
p151
aS'II'
p152
aS'Biography'
p153
aS'persecution'
p154
aS'World'
p155
aS'Liam Neeson'
p156
aS'Drama'
p157
aS'War'
p158
aS'Nazis'
p159
aS'History'
p160
atp161
Rp162
sI8
g1
((lp163
S'Orlando Bloom'
p164
aS'Doom'
p165
aS'Sam'
p166
aS'lead'
p167
aS'army'
p168
aS'Sauron'
p169
aS'Mount'
p170
aS'Men'
p171
aS'Fantasy'
p172
aS'Frodo'
p173
aS'gaze'
p174
aS'Peter Jackson'
p175
aS'Adventure'
p176
aS'Action'
p177
aS'World'
p178
aS'Gandalf'
p179
aS'Aragorn'
p180
aS'Viggo Mortensen'
p181
aS'Ring'
p182
aS'Ian McKellen'
p183
atp184
Rp185
sI9
g1
((lp186
S'David Fincher'
p187
aS'paths'
p188
aS'life'
p189
aS'crosses'
p190
aS'insomniac'
p191
aS'office'
p192
aS'Helena Bonham Carter'
p193
aS'club'
p194
aS'Brad Pitt'
p195
aS'Edward Norton'
p196
aS'worker'
p197
aS'maker'
p198
aS'Drama'
p199
aS'something'
p200
aS'way'
p201
aS'underground'
p202
aS'fight'
p203
aS'soap'
p204
aS'more..'
p205
atp206
Rp207
sI10
g1
((lp208
S'Sci-Fi'
p209
aS'Skywalker'
p210
aS'Imperial'
p211
aS'Jedi'
p212
aS'Master'
p213
aS'Luke'
p214
aS'Darth'
p215
aS'Dark'
p216
aS'Adventure'
p217
aS'Irvin Kershner'
p218
aS'Carrie Fisher'
p219
aS'turning'
p220
aS'Knight'
p221
aS'Mark Hamill'
p222
aS'Action'
p223
aS'friends'
p224
aS'Side'
p225
aS'Force'
p226
aS'Harrison Ford'
p227
aS'Vader'
p228
aS'command'
p229
aS'trains'
p230
aS'fleet'
p231
aS'Yoda'
p232
atp233
Rp234
sI11
g1
((lp235
S'Orlando Bloom'
p236
aS'Elijah Wood'
p237
aS'meek'
p238
aS'Peter Jackson'
p239
aS'Sauron'
p240
aS'Mount'
p241
aS'companions'
p242
aS'Sean Bean'
p243
aS'Fantasy'
p244
aS'journey'
p245
aS'Shire'
p246
aS'Adventure'
p247
aS'hobbit'
p248
aS'Action'
p249
aS'lord'
p250
aS'Ring'
p251
aS'Doom'
p252
atp253
Rp254
sI12
g1
((lp255
S'brash'
p256
aS'head'
p257
aS'woman'
p258
aS'Louise Fletcher'
p259
aS'Peter Brocco'
p260
aS'Milos Forman'
p261
aS'Upon'
p262
aS'admittance'
p263
aS'Michael Berryman'
p264
aS'Drama'
p265
aS'patients'
p266
aS'dictator'
p267
aS'rebel'
p268
aS'rallies'
p269
aS'nurse'
p270
aS'institution'
p271
atp272
Rp273
sI13
g1
((lp274
S'Mystery'
p275
aS'extractor'
p276
aS'life'
p277
aS'task'
p278
aS'Ellen Page'
p279
aS'chance'
p280
aS'Joseph Gordon-Levitt'
p281
aS'Adventure'
p282
aS'Action'
p283
aS'Christopher Nolan'
p284
aS'payment'
p285
aS'Leonardo DiCaprio'
p286
atp287
Rp288
sI14
g1
((lp289
S'Martin Scorsese'
p290
aS'hierarchy'
p291
aS'work'
p292
aS'Crime'
p293
aS'Drama'
p294
aS'Joe Pesci'
p295
aS'Hill'
p296
aS'way'
p297
aS'Henry'
p298
aS'mob'
p299
aS'Ray Liotta'
p300
aS'friends'
p301
aS'Biography'
p302
aS'Robert De Niro'
p303
atp304
Rp305
sI15
g1
((lp306
S'boy'
p307
aS'Death'
p308
aS'Star'
p309
aS'George Lucas'
p310
aS'Fantasy'
p311
aS'farm'
p312
aS'Luke'
p313
aS'Darth'
p314
aS'Skywalker'
p315
aS'Mark Hamill'
p316
aS'Vader'
p317
aS'Harrison Ford'
p318
aS'rebel'
p319
aS'forces'
p320
aS'Action'
p321
aS'Empire'
p322
aS'Leia'
p323
aS'Carrie Fisher'
p324
aS'Princess'
p325
aS'galaxy'
p326
aS'Adventure'
p327
atp328
Rp329
sI16
g1
((lp330
S'Robin Wright'
p331
aS'Romance'
p332
aS'love'
p333
aS'Jenny'
p334
aS'moments'
p335
aS'Curran'
p336
aS'Sally Field'
p337
aS'Drama'
p338
aS'Robert Zemeckis'
p339
aS'Tom Hanks'
p340
aS'Gump'
p341
aS'Forrest'
p342
atp343
Rp344
sI17
g1
((lp345
S'hacker'
p346
aS'learns'
p347
aS'Keanu Reeves'
p348
aS'rebels'
p349
aS'nature'
p350
aS'Laurence Fishburne'
p351
aS'Andy Wachowski'
p352
aS'Carrie-Anne Moss'
p353
aS'reality'
p354
aS'controllers'
p355
aS'computer'
p356
aS'role'
p357
aS'Adventure'
p358
aS'Action'
p359
aS'war'
p360
aS'Sci-Fi'
p361
atp362
Rp363
sI18
g1
((lp364
S'closer'
p365
aS'Isengard'
p366
aS'help'
p367
aS'Sam'
p368
aS'fellowship'
p369
aS'Sauron'
p370
aS'Gollum'
p371
aS'hordes'
p372
aS'Fantasy'
p373
aS'Frodo'
p374
aS'Ian McKellen'
p375
aS'edge'
p376
aS'Peter Jackson'
p377
aS'stand'
p378
aS'Saruman'
p379
aS'Mordor'
p380
aS'Action'
p381
aS'Orlando Bloom'
p382
aS'shifty'
p383
aS'Viggo Mortensen'
p384
aS'Adventure'
p385
atp386
Rp387
sI19
g1
((lp388
S'paths'
p389
aS'different'
p390
aS'neighborhood'
p391
aS'Rio'
p392
aS'Janeiro'
p393
aS'becomes'
p394
aS'Alexandre Rodrigues'
p395
aS'Leandro Firmino'
p396
aS'drug'
p397
aS'Crime'
p398
aS'Drama'
p399
aS'boys'
p400
aS'violent'
p401
aS'take'
p402
aS'photographer'
p403
aS'Fernando Meirelles'
p404
aS'dealer'
p405
aS'Phellipe Haagensen'
p406
atp407
Rp408
sI20
g1
((lp409
S'Mystery'
p410
aS'David Fincher'
p411
aS'detectives'
p412
aS'killer'
p413
aS'Gwyneth Paltrow'
p414
aS'Brad Pitt'
p415
aS'veteran'
p416
aS'hunt'
p417
aS'Crime'
p418
aS'uses'
p419
aS'modus'
p420
aS'rookie'
p421
aS'Morgan Freeman'
p422
aS'operandi'
p423
aS'Thriller'
p424
atp425
Rp426
sI21
g1
((lp427
S'cadet'
p428
aS'victims'
p429
aS'help'
p430
aS'killer'
p431
aS'Crime'
p432
aS'Drama'
p433
aS'Jonathan Demme'
p434
aS'Jodie Foster'
p435
aS'FBI'
p436
aS'Kasi Lemmons'
p437
aS'Lawrence A. Bonney'
p438
aS'Thriller'
p439
atp440
Rp441
sI22
g1
((lp442
S'story'
p443
aS'assassin'
p444
aS'stranger'
p445
aS'harmonica'
p446
aS'ruthless'
p447
aS'Sergio Leone'
p448
aS'desperado'
p449
aS'Jason Robards'
p450
aS'Claudia Cardinale'
p451
aS'Adventure'
p452
aS'Henry Fonda'
p453
aS'railroad'
p454
aS'Epic'
p455
aS'Western'
p456
aS'widow'
p457
atp458
Rp459
sI23
g1
((lp460
S'meets'
p461
aS'Set'
p462
aS'Michael Curtiz'
p463
aS'Romance'
p464
aS'lover'
p465
aS'Africa'
p466
aS'days'
p467
aS'Ingrid Bergman'
p468
aS'II'
p469
aS'complications'
p470
aS'Humphrey Bogart'
p471
aS'expatriate'
p472
aS'World'
p473
aS'Drama'
p474
aS'War'
p475
aS'Paul Henreid'
p476
atp477
Rp478
sI24
g1
((lp479
S'mystery'
p480
aS'Mystery'
p481
aS'story'
p482
aS'criminals'
p483
aS'police'
p484
aS'survivor'
p485
aS'career'
p486
aS'crooks'
p487
aS'Kevin Spacey'
p488
aS'random'
p489
aS'Crime'
p490
aS'Stephen Baldwin'
p491
aS'Bryan Singer'
p492
aS'Gabriel Byrne'
p493
aS'beginning'
p494
aS'Thriller'
p495
atp496
Rp497
sI25
g1
((lp498
S'Jones'
p499
aS'Covenant'
p500
aS'Archeologist'
p501
aS'government'
p502
aS'Harrison Ford'
p503
aS'adventurer'
p504
aS'US'
p505
aS'Karen Allen'
p506
aS'Paul Freeman'
p507
aS'Adventure'
p508
aS'Steven Spielberg'
p509
aS'Action'
p510
aS'Indiana'
p511
aS'Ark'
p512
aS'Nazis'
p513
atp514
Rp515
sI26
g1
((lp516
S'Mystery'
p517
aS'apartment'
p518
aS'Wendell Corey'
p519
aS'photographer'
p520
aS'wheelchair'
p521
aS'bound'
p522
aS'spies'
p523
aS'neighbours'
p524
aS'window'
p525
aS'Grace Kelly'
p526
aS'James Stewart'
p527
aS'murder'
p528
aS'Alfred Hitchcock'
p529
aS'Thriller'
p530
atp531
Rp532
sI27
g1
((lp533
S'Frank Capra'
p534
aS'life'
p535
aS'Family'
p536
aS'angel'
p537
aS'showing'
p538
aS'compassionate'
p539
aS'Drama'
p540
aS'Fantasy'
p541
aS'Lionel Barrymore'
p542
aS'James Stewart'
p543
aS'businessman'
p544
aS'Donna Reed'
p545
atp546
Rp547
sI28
g1
((lp548
S'Mystery'
p549
aS'Anthony Perkins'
p550
aS'motel'
p551
aS'Alfred Hitchcock'
p552
aS'domination'
p553
aS'employer'
p554
aS'Vera Miles'
p555
aS'proprietor'
p556
aS'client'
p557
aS'Thriller'
p558
aS'John Gavin'
p559
aS'mother'
p560
aS'encounters'
p561
aS'Horror'
p562
aS'steals'
p563
aS'secretary'
p564
atp565
Rp566
sI29
g1
((lp567
S'screenplay'
p568
aS'star'
p569
aS'obscurity'
p570
aS'William Holden'
p571
aS'Gloria Swanson'
p572
aS'Film-Noir'
p573
aS'screenwriter'
p574
aS'Drama'
p575
aS'Billy Wilder'
p576
aS'Erich von Stroheim'
p577
aS'hack'
p578
aS'Hollywood'
p579
aS'silent-film'
p580
atp581
Rp582
sI30
g1
((lp583
S'skinhead'
p584
aS'Edward Norton'
p585
aS'brother'
p586
aS'Crime'
p587
aS'Drama'
p588
aS'tries'
p589
aS'Tony Kaye'
p590
aS'Edward Furlong'
p591
aS"Beverly D'Angelo"
p592
aS'path'
p593
aS'neo-nazi'
p594
atp595
Rp596
sI31
g1
((lp597
S'Mystery'
p598
aS'tattoos'
p599
aS'Carrie-Anne Moss'
p600
aS'loss'
p601
aS'Joe Pantoliano'
p602
aS'notes'
p603
aS'wife'
p604
aS'suffering'
p605
aS'memory'
p606
aS'Guy Pearce'
p607
aS'Christopher Nolan'
p608
aS'Thriller'
p609
aS'man'
p610
atp611
Rp612
sI32
g1
((lp613
S'tribe'
p614
aS'Marlon Brando'
p615
aS'renegade'
p616
aS'colonel'
p617
aS'Willard'
p618
aS'mission'
p619
aS'Cambodia'
p620
aS'Nam'
p621
aS'Drama'
p622
aS'Martin Sheen'
p623
aS'Robert Duvall'
p624
aS'god'
p625
aS'Captain'
p626
aS'Francis Ford Coppola'
p627
aS'War'
p628
atp629
Rp630
sI33
g1
((lp631
S'Sarah'
p632
aS'T-1000'
p633
aS'teenage'
p634
aS'Sci-Fi'
p635
aS'Arnold Schwarzenegger'
p636
aS'cyborg'
p637
aS'son'
p638
aS'Edward Furlong'
p639
aS'Terminator'
p640
aS'T-101'
p641
aS'Connor'
p642
aS'Action'
p643
aS'Linda Hamilton'
p644
aS'John'
p645
aS'James Cameron'
p646
aS'Thriller'
p647
atp648
Rp649
sI34
g1
((lp650
S'Landings'
p651
aS'enemy'
p652
aS'group'
p653
aS'brothers'
p654
aS'U.S.'
p655
aS'lines'
p656
aS'Steven Spielberg'
p657
aS'Edward Burns'
p658
aS'paratrooper'
p659
aS'Action'
p660
aS'Tom Hanks'
p661
aS'Tom Sizemore'
p662
aS'Normandy'
p663
aS'action'
p664
aS'soldiers'
p665
aS'Drama'
p666
aS'War'
p667
atp668
Rp669
sI35
g1
((lp670
S'insane'
p671
aS'Stanley Kubrick'
p672
aS'generals'
p673
aS'room'
p674
aS'process'
p675
aS'holocaust'
p676
aS'general'
p677
aS'Sterling Hayden'
p678
aS'politicians'
p679
aS'War'
p680
aS'Peter Sellers'
p681
aS'Comedy'
p682
aS'George C. Scott'
p683
aS'war'
p684
atp685
Rp686
sI36
g1
((lp687
S'Romance'
p688
aS'flower'
p689
aS'love'
p690
aS'Charles Chaplin'
p691
aS'Florence Lee'
p692
aS'Drama'
p693
aS'Tramp'
p694
aS'Harry Myers'
p695
aS'Virginia Cherrill'
p696
aS'girl'
p697
aS'Comedy'
p698
atp699
Rp700
sI37
g1
((lp701
S'Tom Skerritt'
p702
aS'S.O.S.'
p703
aS'mining'
p704
aS'Ridley Scott'
p705
aS'Sci-Fi'
p706
aS'space'
p707
aS'nest'
p708
aS'deep'
p709
aS'crew'
p710
aS'planet'
p711
aS'Veronica Cartwright'
p712
aS'strange'
p713
aS'Sigourney Weaver'
p714
aS'discovers'
p715
aS'Horror'
p716
aS'ship'
p717
aS'eggs'
p718
atp719
Rp720
sI38
g1
((lp721
S'Mystery'
p722
aS'Eva Marie Saint'
p723
aS'group'
p724
aS'government'
p725
aS'country'
p726
aS'James Mason'
p727
aS'executive'
p728
aS'agent'
p729
aS'spies'
p730
aS'York'
p731
aS'way'
p732
aS'Cary Grant'
p733
aS'Action'
p734
aS'New'
p735
aS'hapless'
p736
aS'Adventure'
p737
aS'Alfred Hitchcock'
p738
aS'advertising'
p739
atp740
Rp741
sI39
g1
((lp742
S'family'
p743
aS'gods'
p744
aS'move'
p745
aS'humans'
p746
aS'middle'
p747
aS'Animation'
p748
aS'Daveigh Chase'
p749
aS'girl'
p750
aS'creatures'
p751
aS'sullen'
p752
aS'suburbs'
p753
aS'Adventure'
p754
aS'monsters'
p755
aS'Susan Egan'
p756
aS'world'
p757
aS'animals'
p758
aS'wanders'
p759
aS'Family'
p760
aS'bathhouse'
p761
aS'witches'
p762
aS'Hayao Miyazaki'
p763
aS'Suzanne Pleshette'
p764
atp765
Rp766
sI40
g1
((lp767
S'Paulette Goddard'
p768
aS'woman'
p769
aS'help'
p770
aS'society'
p771
aS'Charles Chaplin'
p772
aS'Drama'
p773
aS'Tramp'
p774
aS'homeless'
p775
aS'Comedy'
p776
aS'Henry Bergman'
p777
atp778
Rp779
sI41
g1
((lp780
S'Drama'
p781
aS'Mississippi'
p782
aS'Christoph Waltz'
p783
aS'slave'
p784
aS'help'
p785
aS'wife'
p786
aS'hunter'
p787
aS'Quentin Tarantino'
p788
aS'Crime'
p789
aS'plantation'
p790
aS'Jamie Foxx'
p791
aS'Adventure'
p792
aS'bounty'
p793
aS'owner'
p794
aS'Leonardo DiCaprio'
p795
aS'freed'
p796
atp797
Rp798
sI42
g1
((lp799
S'Mystery'
p800
aS'tycoon'
p801
aS'death'
p802
aS'publishing'
p803
aS'Orson Welles'
p804
aS'Joseph Cotten'
p805
aS'Drama'
p806
aS'meaning'
p807
aS'Dorothy Comingore'
p808
aS'reporters'
p809
aS'news'
p810
aS'Agnes Moorehead'
p811
aS'utterance'
p812
atp813
Rp814
sI43
g1
((lp815
S'DeLorean'
p816
aS'Brown'
p817
aS'high-school-age'
p818
aS'Sci-Fi'
p819
aS'Christopher Lloyd'
p820
aS'Robert Zemeckis'
p821
aS'Lea Thompson'
p822
aS'Michael J. Fox'
p823
aS'years'
p824
aS'parents'
p825
aS'teenager'
p826
aS'Dr.'
p827
aS'existence'
p828
aS'Emmett'
p829
aS'Comedy'
p830
aS'order'
p831
aS'friend'
p832
aS'Adventure'
p833
atp834
Rp835
sI44
g1
((lp836
S'Mystery'
p837
aS'Jack Nicholson'
p838
aS'violence'
p839
aS'heads'
p840
aS'winter'
p841
aS'family'
p842
aS'presence'
p843
aS'Danny Lloyd'
p844
aS'Horror'
p845
aS'hotel'
p846
aS'father'
p847
aS'Stanley Kubrick'
p848
aS'son'
p849
aS'forebodings'
p850
aS'future'
p851
aS'influences'
p852
aS'sees'
p853
aS'Shelley Duvall'
p854
atp855
Rp856
sI45
g1
((lp857
S'fight'
p858
aS'Commissioner'
p859
aS'Christian Bale'
p860
aS'city'
p861
aS'Batman'
p862
aS'Crime'
p863
aS'Thriller'
p864
aS'evil'
p865
aS'years'
p866
aS'enemy'
p867
aS'Action'
p868
aS'Gotham'
p869
aS'Gary Oldman'
p870
aS'Eight'
p871
aS'Gordon'
p872
aS'Christopher Nolan'
p873
aS'brands'
p874
aS'Tom Hardy'
p875
aS'rises'
p876
aS'bury'
p877
aS'City...'
p878
atp879
Rp880
sI46
g1
((lp881
S'Drama'
p882
aS'History'
p883
aS'Adrien Brody'
p884
aS'Emilia Fox'
p885
aS'Frank Finlay'
p886
aS'Roman Polanski'
p887
aS'musician'
p888
aS'struggles'
p889
aS'II'
p890
aS'destruction'
p891
aS'World'
p892
aS'ghetto'
p893
aS'War'
p894
aS'Biography'
p895
aS'Warsaw'
p896
atp897
Rp898
sI47
g1
((lp899
S'Giorgio Cantarini'
p900
aS'Drama'
p901
aS'Nicoletta Braschi'
p902
aS'death'
p903
aS'help'
p904
aS'humour'
p905
aS'Nazi'
p906
aS'Romance'
p907
aS'camp'
p908
aS'son'
p909
aS'romance'
p910
aS'Roberto Benigni'
p911
aS'Comedy'
p912
aS'quality'
p913
aS'man'
p914
atp915
Rp916
sI48
g1
((lp917
S'clan'
p918
aS'cop'
p919
aS'police'
p920
aS'Martin Scorsese'
p921
aS'enemy'
p922
aS'sides'
p923
aS'rat'
p924
aS'outfit'
p925
aS'mole'
p926
aS'state'
p927
aS'race'
p928
aS'Matt Damon'
p929
aS'Leonardo DiCaprio'
p930
aS'Jack Nicholson'
p931
aS'mob'
p932
aS'Crime'
p933
aS'force'
p934
aS'Mafia'
p935
aS'undercover'
p936
aS'Thriller'
p937
atp938
Rp939
sI49
g1
((lp940
S'city'
p941
aS'criminals'
p942
aS'police'
p943
aS'Ellen Widmann'
p944
aS'Film-Noir'
p945
aS'Crime'
p946
aS'Drama'
p947
aS'manhunt'
p948
aS'Peter Lorre'
p949
aS'Inge Landgut'
p950
aS'Fritz Lang'
p951
atp952
Rp953
sI50
g1
((lp954
S'detective'
p955
aS'activities'
p956
aS'acrophobia'
p957
aS'Francisco'
p958
aS'San'
p959
aS'wife'
p960
aS'Mystery'
p961
aS'Alfred Hitchcock'
p962
aS'Barbara Bel Geddes'
p963
aS'while'
p964
aS'Romance'
p965
aS'suffering'
p966
aS'strange'
p967
aS'investigates'
p968
aS'Thriller'
p969
aS'James Stewart'
p970
aS'friend'
p971
aS'Kim Novak'
p972
atp973
Rp974
sI51
g1
((lp975
S'superiors'
p976
aS'refuse'
p977
aS'WW1'
p978
aS'Stanley Kubrick'
p979
aS'War'
p980
aS'Drama'
p981
aS'attack'
p982
aS'Kirk Douglas'
p983
aS'Adolphe Menjou'
p984
aS'Ralph Meeker'
p985
aS'soldiers'
p986
aS'example'
p987
atp988
Rp989
sI52
g1
((lp990
S'Burnham'
p991
aS'life'
p992
aS'daughter'
p993
aS'Sam Mendes'
p994
aS'suburban'
p995
aS'father'
p996
aS'Kevin Spacey'
p997
aS'Lester'
p998
aS'Drama'
p999
aS'infatuation'
p1000
aS'Annette Bening'
p1001
aS'Thora Birch'
p1002
aS'crisis'
p1003
aS'friend'
p1004
atp1005
Rp1006
sI53
g1
((lp1007
S'taxi'
p1008
aS'City'
p1009
aS'teenage'
p1010
aS'process'
p1011
aS'Crime'
p1012
aS'New'
p1013
aS'decadence'
p1014
aS'veteran'
p1015
aS'Jodie Foster'
p1016
aS'York'
p1017
aS'prostitute'
p1018
aS'war'
p1019
aS'urge'
p1020
aS'driver'
p1021
aS'Drama'
p1022
aS'Vietnam'
p1023
aS'Robert De Niro'
p1024
aS'Martin Scorsese'
p1025
aS'sleaze'
p1026
aS'nighttime'
p1027
aS'Albert Brooks'
p1028
aS'feeds'
p1029
aS'works'
p1030
atp1031
Rp1032
sI54
g1
((lp1033
S'fraud'
p1034
aS'Edward G. Robinson'
p1035
aS'investigator'
p1036
aS'rep'
p1037
aS'Fred MacMurray'
p1038
aS'suspicions'
p1039
aS'Crime'
p1040
aS'Drama'
p1041
aS'Billy Wilder'
p1042
aS'lets'
p1043
aS'Film-Noir'
p1044
aS'Barbara Stanwyck'
p1045
aS'scheme'
p1046
aS'insurance'
p1047
atp1048
Rp1049
sI55
g1
((lp1050
S'Sci-Fi'
p1051
aS'James Cameron'
p1052
aS'Carrie Henn'
p1053
aS'planet'
p1054
aS'Michael Biehn'
p1055
aS'Sigourney Weaver'
p1056
aS'Adventure'
p1057
aS'Action'
p1058
atp1059
Rp1060
sI56
g1
((lp1061
S'Comedy'
p1062
aS'right'
p1063
aS'center'
p1064
aS'home'
p1065
aS'leaves'
p1066
aS'Tim Allen'
p1067
aS'Tom Hanks'
p1068
aS'Animation'
p1069
aS'college'
p1070
aS'Adventure'
p1071
aS'Lee Unkrich'
p1072
aS'toys'
p1073
aS'Andy'
p1074
aS'Woody'
p1075
aS'Joan Cusack'
p1076
atp1077
Rp1078
sI57
g1
((lp1079
S'Michael Clarke Duncan'
p1080
aS'Drama'
p1081
aS'Death'
p1082
aS'gift'
p1083
aS'Frank Darabont'
p1084
aS'charges'
p1085
aS'David Morse'
p1086
aS'Crime'
p1087
aS'guards'
p1088
aS'Fantasy'
p1089
aS'Tom Hanks'
p1090
aS'murder'
p1091
aS'lives'
p1092
aS'child'
p1093
aS'Row'
p1094
aS'rape'
p1095
aS'man'
p1096
atp1097
Rp1098
sI58
g1
((lp1099
S'Joaquin Phoenix'
p1100
aS'Ridley Scott'
p1101
aS'family'
p1102
aS'revenge'
p1103
aS'son'
p1104
aS'Drama'
p1105
aS'Russell Crowe'
p1106
aS'Roman'
p1107
aS'Rome'
p1108
aS'Adventure'
p1109
aS'Action'
p1110
aS'emperor'
p1111
aS'Connie Nielsen'
p1112
aS'gladiator'
p1113
atp1114
Rp1115
sI59
g1
((lp1116
S'Sci-Fi'
p1117
aS'Patrick Magee'
p1118
aS'Stanley Kubrick'
p1119
aS'Alex'
p1120
aS'delinquent'
p1121
aS'government'
p1122
aS'problem...'
p1123
aS'Malcolm McDowell'
p1124
aS'crime'
p1125
aS'Drama'
p1126
aS'society'
p1127
aS'Britain'
p1128
aS'therapy'
p1129
aS'DeLarge'
p1130
aS'aversion'
p1131
aS'Crime'
p1132
aS'Michael Bates'
p1133
aS'volunteers'
p1134
aS'effort'
p1135
aS'plan'
p1136
atp1137
Rp1138
sI60
g1
((lp1139
S'Adenoid'
p1140
aS'kind'
p1141
aS'living'
p1142
aS'Hynkel'
p1143
aS'Charles Chaplin'
p1144
aS'Jack Oakie'
p1145
aS'slums'
p1146
aS'Drama'
p1147
aS'War'
p1148
aS'barber'
p1149
aS'Dictator'
p1150
aS'Comedy'
p1151
aS'day'
p1152
aS'Reginald Gardiner'
p1153
atp1154
Rp1155
sI61
g1
((lp1156
S'Mystery'
p1157
aS'magicians'
p1158
aS'Christopher Nolan'
p1159
aS'Hugh Jackman'
p1160
aS'Christian Bale'
p1161
aS'Drama'
p1162
aS'Michael Caine'
p1163
aS'rivalry'
p1164
aS'illusion'
p1165
aS'Thriller'
p1166
atp1167
Rp1168
sI62
g1
((lp1169
S'flamboyant'
p1170
aS'service'
p1171
aS'figure'
p1172
aS'I'
p1173
aS"Peter O'Toole"
p1174
aS'Drama'
p1175
aS'David Lean'
p1176
aS'Adventure'
p1177
aS'Arabia'
p1178
aS'World'
p1179
aS'loyalties'
p1180
aS'Alec Guinness'
p1181
aS'War'
p1182
aS'Biography'
p1183
aS'Anthony Quinn'
p1184
atp1185
Rp1186
sI63
g1
((lp1187
S'Mystery'
p1188
aS'Gregory Peck'
p1189
aS'Atticus'
p1190
aS'kids'
p1191
aS'Robert Mulligan'
p1192
aS'John Megna'
p1193
aS'Crime'
p1194
aS'Drama'
p1195
aS'charge'
p1196
aS'prejudice'
p1197
aS'rape'
p1198
aS'lawyer'
p1199
aS'Finch'
p1200
aS'Depression-era'
p1201
aS'Frank Overton'
p1202
aS'South'
p1203
aS'man'
p1204
atp1205
Rp1206
sI64
g1
((lp1207
S'criminals'
p1208
aS'police'
p1209
aS'jewelery'
p1210
aS'heist'
p1211
aS'Tim Roth'
p1212
aS'Quentin Tarantino'
p1213
aS'Crime'
p1214
aS'Harvey Keitel'
p1215
aS'Michael Madsen'
p1216
aS'informant'
p1217
aS'Thriller'
p1218
atp1219
Rp1220
sI65
g1
((lp1221
S'theater'
p1222
aS'Enzo Cannavale'
p1223
aS'Giuseppe Tornatore'
p1224
aS'Antonella Attili'
p1225
aS'deep'
p1226
aS'filmmaker'
p1227
aS'Drama'
p1228
aS'movies'
p1229
aS'projectionist'
p1230
aS'village'
p1231
aS'Isa Danieli'
p1232
aS'love'
p1233
aS'friendship'
p1234
aS'childhood'
p1235
atp1236
Rp1237
sI66
g1
((lp1238
S'Mystery'
p1239
aS'death'
p1240
aS'Alida Valli'
p1241
aS'postwar'
p1242
aS'opportunist'
p1243
aS'Martins'
p1244
aS'Joseph Cotten'
p1245
aS'Film-Noir'
p1246
aS'Orson Welles'
p1247
aS'Thriller'
p1248
aS'Harry'
p1249
aS'Carol Reed'
p1250
aS'Holly'
p1251
aS'Lime'
p1252
aS'Pulp'
p1253
aS'friend'
p1254
aS'Vienna'
p1255
atp1256
Rp1257
sI67
g1
((lp1258
S'addictions'
p1259
aS'Jared Leto'
p1260
aS'utopias'
p1261
aS'Island'
p1262
aS'Darren Aronofsky'
p1263
aS'Ellen Burstyn'
p1264
aS'Coney'
p1265
aS'Drama'
p1266
aS'individuals'
p1267
aS'Jennifer Connelly'
p1268
atp1269
Rp1270
sI68
g1
((lp1271
S'Mountains'
p1272
aS'Walter Huston'
p1273
aS'gold'
p1274
aS'Mexico'
p1275
aS'work'
p1276
aS'Fred'
p1277
aS'Madre'
p1278
aS'Action'
p1279
aS'Tim Holt'
p1280
aS'convince'
p1281
aS'Americans'
p1282
aS'Adventure'
p1283
aS'Humphrey Bogart'
p1284
aS'Sierra'
p1285
aS'Curtin'
p1286
aS'Bob'
p1287
aS'John Huston'
p1288
aS'Drama'
p1289
aS'prospector'
p1290
aS'Dobbs'
p1291
atp1292
Rp1293
sI69
g1
((lp1294
S'King'
p1295
aS'Matthew Broderick'
p1296
aS'abandons'
p1297
aS'Roger Allers'
p1298
aS'Jeremy Irons'
p1299
aS'father'
p1300
aS'Tricked'
p1301
aS'ridden'
p1302
aS'Drama'
p1303
aS'lion'
p1304
aS'future'
p1305
aS'guilt'
p1306
aS'cub'
p1307
aS'identity'
p1308
aS'Animation'
p1309
aS'James Earl Jones'
p1310
aS'flees'
p1311
aS'Adventure'
p1312
atp1313
Rp1314
sI70
g1
((lp1315
S'loss'
p1316
aS'Romance'
p1317
aS'relationship'
p1318
aS'process'
p1319
aS'memories'
p1320
aS'couple'
p1321
aS'Kate Winslet'
p1322
aS'Drama'
p1323
aS'Jim Carrey'
p1324
aS'Michel Gondry'
p1325
aS'turns'
p1326
aS'undergo'
p1327
aS'Gerry Robert Byrne'
p1328
aS'procedure'
p1329
aS'Sci-Fi'
p1330
atp1331
Rp1332
sI71
g1
((lp1333
S'Sergio Leone'
p1334
aS'Lower'
p1335
aS'Elizabeth McGovern'
p1336
aS'thirty'
p1337
aS'Jewish'
p1338
aS'James Woods'
p1339
aS'Crime'
p1340
aS'life'
p1341
aS'regrets'
p1342
aS'Manhattan'
p1343
aS'Drama'
p1344
aS'gangster'
p1345
aS'returns'
p1346
aS'Robert De Niro'
p1347
aS'years'
p1348
aS'ghosts'
p1349
aS'East'
p1350
aS'Side'
p1351
aS'Prohibition-era'
p1352
atp1353
Rp1354
sI72
g1
((lp1355
S'Death'
p1356
aS'palace'
p1357
aS'Skywalker'
p1358
aS'Jabba'
p1359
aS'Solo'
p1360
aS'Star'
p1361
aS'Han'
p1362
aS'Hutt'
p1363
aS'father'
p1364
aS'Adventure'
p1365
aS'Carrie Fisher'
p1366
aS'Light'
p1367
aS'Mark Hamill'
p1368
aS'Action'
p1369
aS'Force'
p1370
aS'Side'
p1371
aS'attempt'
p1372
aS'Rebels'
p1373
aS'Harrison Ford'
p1374
aS'Fantasy'
p1375
aS'Second'
p1376
aS'Luke'
p1377
aS'Richard Marquand'
p1378
atp1379
Rp1380
sI73
g1
((lp1381
S'Hue'
p1382
aS'training'
p1383
aS'set'
p1384
aS'street'
p1385
aS'recruits'
p1386
aS'observes'
p1387
aS'U.S.'
p1388
aS'camp'
p1389
aS'boot'
p1390
aS'Stanley Kubrick'
p1391
aS'bloody'
p1392
aS'Drama'
p1393
aS'Vietnam'
p1394
aS'effects'
p1395
aS'Adam Baldwin'
p1396
aS"Vincent D'Onofrio"
p1397
aS'Marine'
p1398
aS'War'
p1399
aS'Matthew Modine'
p1400
atp1401
Rp1402
sI74
g1
((lp1403
S'Mystery'
p1404
aS'Curtis Hanson'
p1405
aS'LA'
p1406
aS'justice'
p1407
aS'series'
p1408
aS'brand'
p1409
aS'policemen'
p1410
aS'Kevin Spacey'
p1411
aS'Crime'
p1412
aS'Drama'
p1413
aS'Russell Crowe'
p1414
aS'Guy Pearce'
p1415
aS'sleazy'
p1416
aS'murders'
p1417
aS'corruption'
p1418
atp1419
Rp1420
sI75
g1
((lp1421
S'Action'
p1422
aS'Drama'
p1423
aS'Angus Macfadyen'
p1424
aS'Mel Gibson'
p1425
aS'soldier'
p1426
aS'rules'
p1427
aS'assaulting'
p1428
aS'English'
p1429
aS'revolt'
p1430
aS'cruel'
p1431
aS'commoner'
p1432
aS'Sophie Marceau'
p1433
aS'leads'
p1434
aS'bride'
p1435
aS'secret'
p1436
aS'Biography'
p1437
aS'tyrant'
p1438
aS'Scottish'
p1439
aS'warriors'
p1440
aS'Patrick McGoohan'
p1441
aS'rape'
p1442
atp1443
Rp1444
sI76
g1
((lp1445
S'case'
p1446
aS'Drama'
p1447
aS'murder'
p1448
aS'Jack Nicholson'
p1449
aS'Faye Dunaway'
p1450
aS'Mystery'
p1451
aS'Crime'
p1452
aS'water'
p1453
aS'Roman Polanski'
p1454
aS'stumbles'
p1455
aS'adultery'
p1456
aS'investigating'
p1457
aS'scheme'
p1458
aS'John Huston'
p1459
aS'something'
p1460
atp1461
Rp1462
sI77
g1
((lp1463
S'Mystery'
p1464
aS'Min-sik Choi'
p1465
aS'Dae-Su'
p1466
aS'Oh'
p1467
aS'Chan-wook Park'
p1468
aS'days'
p1469
aS'years'
p1470
aS'Drama'
p1471
aS'Hye-jeong Kang'
p1472
aS'captor'
p1473
aS'Thriller'
p1474
aS'Ji-tae Yu'
p1475
atp1476
Rp1477
sI78
g1
((lp1478
S'Gene Kelly'
p1479
aS"Donald O'Connor"
p1480
aS'silent'
p1481
aS'company'
p1482
aS'transition'
p1483
aS'Romance'
p1484
aS'production'
p1485
aS'Debbie Reynolds'
p1486
aS'Comedy'
p1487
aS'Musical'
p1488
aS'film'
p1489
aS'Stanley Donen'
p1490
atp1491
Rp1492
sI79
g1
((lp1493
S'Terry Gilliam'
p1494
aS'search'
p1495
aS'Eric Idle'
p1496
aS'Graham Chapman'
p1497
aS'Fantasy'
p1498
aS'Arthur'
p1499
aS'Adventure'
p1500
aS'Grail'
p1501
aS'John Cleese'
p1502
aS'knights'
p1503
aS'Comedy'
p1504
atp1505
Rp1506
sI80
g1
((lp1507
S'Marilyn Monroe'
p1508
aS'hit'
p1509
aS'Billy Wilder'
p1510
aS'Jack Lemmon'
p1511
aS'band'
p1512
aS'state'
p1513
aS'musicians'
p1514
aS'complications'
p1515
aS'mob'
p1516
aS'Comedy'
p1517
aS'Tony Curtis'
p1518
aS'witness'
p1519
aS'women'
p1520
atp1521
Rp1522
sI81
g1
((lp1523
S'search'
p1524
aS'stolen'
p1525
aS'bicycle'
p1526
aS'Lamberto Maggiorani'
p1527
aS'son'
p1528
aS'Drama'
p1529
aS'job'
p1530
aS'vital'
p1531
aS'Lianella Carell'
p1532
aS'Vittorio De Sica'
p1533
aS'Crime'
p1534
aS'Enzo Staiola'
p1535
aS'man'
p1536
atp1537
Rp1538
sI82
g1
((lp1539
S'insane'
p1540
aS'story'
p1541
aS'Tom Hulce'
p1542
aS'Mozart'
p1543
aS'Wolfgang'
p1544
aS'Salieri'
p1545
aS'Milos Forman'
p1546
aS'Antonio'
p1547
aS'Drama'
p1548
aS'F. Murray Abraham'
p1549
aS'secret'
p1550
aS'Music'
p1551
aS'Amadeus'
p1552
aS'rival'
p1553
aS'peer'
p1554
aS'flashback'
p1555
aS'asylum'
p1556
aS'Elizabeth Berridge'
p1557
aS'Biography'
p1558
atp1559
Rp1560
sI83
g1
((lp1561
S'Mystery'
p1562
aS'Stanley Kubrick'
p1563
aS'H.A.L.'
p1564
aS'Sci-Fi'
p1565
aS'Gary Lockwood'
p1566
aS'William Sylvester'
p1567
aS'surface'
p1568
aS'finds'
p1569
aS'quest'
p1570
aS'computer'
p1571
aS'Lunar'
p1572
aS'sets'
p1573
aS'beneath'
p1574
aS'Keir Dullea'
p1575
aS'intelligent'
p1576
aS'Humanity'
p1577
aS'Adventure'
p1578
atp1579
Rp1580
sI84
g1
((lp1581
S'Bette Davis'
p1582
aS'theater'
p1583
aS'ingenue'
p1584
aS'company'
p1585
aS'actress'
p1586
aS'Drama'
p1587
aS'Joseph L. Mankiewicz'
p1588
aS'George Sanders'
p1589
aS'circle'
p1590
aS'Anne Baxter'
p1591
aS'friends'
p1592
aS'stage'
p1593
atp1594
Rp1595
sI85
g1
((lp1596
S'Comedy'
p1597
aS'fortune'
p1598
aS'Robert Redford'
p1599
aS'Robert Shaw'
p1600
aS'Chicago'
p1601
aS'revenge'
p1602
aS'Paul Newman'
p1603
aS'teams'
p1604
aS'Drama'
p1605
aS'George Roy Hill'
p1606
aS'master'
p1607
aS'banker'
p1608
aS'Crime'
p1609
aS'partner'
p1610
aS'man'
p1611
aS'con'
p1612
atp1613
Rp1614
sI86
g1
((lp1615
S'gunslinger'
p1616
aS'Old'
p1617
aS'help'
p1618
aS'West'
p1619
aS'Gene Hackman'
p1620
aS'Munny'
p1621
aS'William'
p1622
aS'job'
p1623
aS'Western'
p1624
aS'partner'
p1625
aS'Morgan Freeman'
p1626
aS'Retired'
p1627
aS'Clint Eastwood'
p1628
aS'man'
p1629
atp1630
Rp1631
sI87
g1
((lp1632
S'Comedy'
p1633
aS'Drama'
p1634
aS'apartment'
p1635
aS'Romance'
p1636
aS'Fred MacMurray'
p1637
aS'company'
p1638
aS'trysts'
p1639
aS'Jack Lemmon'
p1640
aS'ensue'
p1641
aS'romance'
p1642
aS'Billy Wilder'
p1643
aS'tries'
p1644
aS'complications'
p1645
aS'Shirley MacLaine'
p1646
aS'man'
p1647
aS'executives'
p1648
atp1649
Rp1650
sI88
g1
((lp1651
S'Jones'
p1652
aS'Holy'
p1653
aS'father'
p1654
aS'Dr.'
p1655
aS'Sr.'
p1656
aS'eminent'
p1657
aS'Steven Spielberg'
p1658
aS'Sean Connery'
p1659
aS'Denholm Elliott'
p1660
aS'Harrison Ford'
p1661
aS'Adventure'
p1662
aS'Grail'
p1663
aS'Henry'
p1664
aS'Action'
p1665
aS'Indiana'
p1666
aS'archaeologist'
p1667
aS'footsteps'
p1668
aS'Nazis'
p1669
atp1670
Rp1671
sI89
g1
((lp1672
S'Drama'
p1673
aS'life'
p1674
aS'Martin Scorsese'
p1675
aS'Joe Pesci'
p1676
aS'violence'
p1677
aS'Cathy Moriarty'
p1678
aS'leads'
p1679
aS'boxer'
p1680
aS'Biography'
p1681
aS'ring'
p1682
aS'Sport'
p1683
aS'temper'
p1684
aS'journey'
p1685
aS'Robert De Niro'
p1686
atp1687
Rp1688
sI90
g1
((lp1689
S'bridge'
p1690
aS'camp'
p1691
aS'Jack Hawkins'
p1692
aS'PoW'
p1693
aS'William Holden'
p1694
aS'differences'
p1695
aS'captors'
p1696
aS'commander'
p1697
aS'Drama'
p1698
aS'construction'
p1699
aS'plan'
p1700
aS'men'
p1701
aS'colonel'
p1702
aS'David Lean'
p1703
aS'Alec Guinness'
p1704
aS'railway'
p1705
aS'History'
p1706
aS'Adventure'
p1707
aS'co-operates'
p1708
atp1709
Rp1710
sI91
g1
((lp1711
S'Mystery'
p1712
aS'Drama'
p1713
aS'murder'
p1714
aS'Billy Wilder'
p1715
aS'Tyrone Power'
p1716
aS'Christie'
p1717
aS'tale'
p1718
aS'trial'
p1719
aS'Agatha'
p1720
aS'surprise'
p1721
aS'Marlene Dietrich'
p1722
aS'Charles Laughton'
p1723
aS'man'
p1724
atp1725
Rp1726
sI92
g1
((lp1727
S'boy'
p1728
aS'sister'
p1729
aS'Ayano Shiraishi'
p1730
aS'Yoshiko Shinohara'
p1731
aS'II'
p1732
aS'Animation'
p1733
aS'struggle'
p1734
aS'Japan'
p1735
aS'Isao Takahata'
p1736
aS'World'
p1737
aS'Tsutomu Tatsumi'
p1738
aS'Drama'
p1739
aS'War'
p1740
aS'film'
p1741
atp1742
Rp1743
sI93
g1
((lp1744
S'Gennaro'
p1745
aS'Los'
p1746
aS'Bruce Willis'
p1747
aS'Reginald VelJohnson'
p1748
aS'John'
p1749
aS'Christmas'
p1750
aS'terrorist'
p1751
aS'Nakatomi'
p1752
aS'party'
p1753
aS'Thriller'
p1754
aS'hostage'
p1755
aS'Plaza'
p1756
aS'Angeles'
p1757
aS'others'
p1758
aS'Action'
p1759
aS'wife'
p1760
aS'German'
p1761
aS'Bonnie Bedelia'
p1762
aS'John McTiernan'
p1763
aS'officer'
p1764
aS'McClane'
p1765
aS'Gruber'
p1766
aS'NYPD'
p1767
atp1768
Rp1769
sI94
g1
((lp1770
S'Shadows'
p1771
aS'City'
p1772
aS'training'
p1773
aS'League'
p1774
aS'Batman'
p1775
aS'Christian Bale'
p1776
aS'Christopher Nolan'
p1777
aS'crime'
p1778
aS'corruption'
p1779
aS'Gotham'
p1780
aS'mentor'
p1781
aS'Michael Caine'
p1782
aS'Action'
p1783
aS'Liam Neeson'
p1784
aS'Crime'
p1785
aS'Scarecrow'
p1786
aS'war'
p1787
aS'Adventure'
p1788
atp1789
Rp1790
sI95
g1
((lp1791
S'Payman Maadi'
p1792
aS'life'
p1793
aS'Iran'
p1794
aS'parent'
p1795
aS'country'
p1796
aS'couple'
p1797
aS'Leila Hatami'
p1798
aS'disease'
p1799
aS'Drama'
p1800
aS'Asghar Farhadi'
p1801
aS'moving'
p1802
aS'child'
p1803
aS'Alzheimer'
p1804
aS'Sareh Bayat'
p1805
aS'decision'
p1806
atp1807
Rp1808
sI96
g1
((lp1809
S'jewelers'
p1810
aS'amateur'
p1811
aS'promoters'
p1812
aS'Brad Pitt'
p1813
aS'diamond'
p1814
aS'boxing'
p1815
aS'Dennis Farina'
p1816
aS'bookmakers'
p1817
aS'fight'
p1818
aS'gangster'
p1819
aS'violent'
p1820
aS'stolen'
p1821
aS'Guy Ritchie'
p1822
aS'priceless'
p1823
aS'Benicio Del Toro'
p1824
aS'Crime'
p1825
aS'robbers'
p1826
aS'incompetent'
p1827
aS'Thriller'
p1828
atp1829
Rp1830
sI97
g1
((lp1831
S'Drama'
p1832
aS'Traudl'
p1833
aS'end'
p1834
aS'Adolf'
p1835
aS'Biography'
p1836
aS'days'
p1837
aS'Ulrich Matthes'
p1838
aS'WWII'
p1839
aS'Berlin'
p1840
aS'dictator'
p1841
aS'Junge'
p1842
aS'Bruno Ganz'
p1843
aS'Oliver Hirschbiegel'
p1844
aS'Alexandra Maria Lara'
p1845
aS'bunker'
p1846
aS'History'
p1847
aS'Nazi'
p1848
aS'Hitler'
p1849
aS'secretary'
p1850
atp1851
Rp1852
sI98
g1
((lp1853
S'Drama'
p1854
aS'Richard Attenborough'
p1855
aS'John Sturges'
p1856
aS'POWs'
p1857
aS'Steve McQueen'
p1858
aS'camp'
p1859
aS'number'
p1860
aS'II'
p1861
aS'Allied'
p1862
aS'plan'
p1863
aS'James Garner'
p1864
aS'World'
p1865
aS'History'
p1866
aS'War'
p1867
aS'Adventure'
p1868
atp1869
Rp1870
sI99
g1
((lp1871
S'Frank Capra'
p1872
aS'Drama'
p1873
aS'His'
p1874
aS'Claude Rains'
p1875
aS'US'
p1876
aS'Jean Arthur'
p1877
aS'vacancy'
p1878
aS'Senate.'
p1879
aS'James Stewart'
p1880
aS'corruption'
p1881
aS'man'
p1882
atp1883
Rp1884
sI100
g1
((lp1885
S'wilds'
p1886
aS'Comedy'
p1887
aS'Christopher Plummer'
p1888
aS'tying'
p1889
aS'wilderness'
p1890
aS'balloons'
p1891
aS'explorer'
p1892
aS'Edward Asner'
p1893
aS'Jordan Nagai'
p1894
aS'thousands'
p1895
aS'America.'
p1896
aS'Animation'
p1897
aS'Adventure'
p1898
aS'Carl'
p1899
aS'stowaway'
p1900
aS'home'
p1901
aS'years'
p1902
aS'dream'
p1903
aS'Pete Docter'
p1904
aS'South'
p1905
aS'Russell'
p1906
atp1907
Rp1908
sI101
g1
((lp1909
S'boy'
p1910
aS'toy'
p1911
aS'spaceman'
p1912
aS'figure'
p1913
aS'doll'
p1914
aS'supplants'
p1915
aS'Don Rickles'
p1916
aS'cowboy'
p1917
aS'Tim Allen'
p1918
aS'Tom Hanks'
p1919
aS'Animation'
p1920
aS'Adventure'
p1921
aS'Comedy'
p1922
aS'John Lasseter'
p1923
aS'room'
p1924
atp1925
Rp1926
sI102
g1
((lp1927
S'Elia Kazan'
p1928
aS'Marlon Brando'
p1929
aS'fighter'
p1930
aS'union'
p1931
aS'struggles'
p1932
aS'Karl Malden'
p1933
aS'Crime'
p1934
aS'Drama'
p1935
aS'Lee J. Cobb'
p1936
aS'corrupt'
p1937
aS'bosses'
p1938
aS'longshoreman'
p1939
atp1940
Rp1941
sI103
g1
((lp1942
S'living'
p1943
aS'John Hurt'
p1944
aS'scraping'
p1945
aS'sensitivity'
p1946
aS'freak.'
p1947
aS'Drama'
p1948
aS'person'
p1949
aS'Behind'
p1950
aS'Anne Bancroft'
p1951
aS'intelligence'
p1952
aS'facade'
p1953
aS'David Lynch'
p1954
aS'surgeon'
p1955
aS'Anthony Hopkins'
p1956
aS'rescues'
p1957
aS'Biography'
p1958
aS'man'
p1959
atp1960
Rp1961
sI104
g1
((lp1962
S'Al Pacino'
p1963
aS'group'
p1964
aS'Michael Mann'
p1965
aS'heist'
p1966
aS'clue'
p1967
aS'Drama'
p1968
aS'heat'
p1969
aS'Val Kilmer'
p1970
aS'Action'
p1971
aS'police'
p1972
aS'Crime'
p1973
aS'robbers'
p1974
aS'bank'
p1975
aS'Robert De Niro'
p1976
atp1977
Rp1978
sI105
g1
((lp1979
S'Union'
p1980
aS'Buster Keaton'
p1981
aS'lines'
p1982
aS'Marion Mack'
p1983
aS'Adventure'
p1984
aS'Glen Cavender'
p1985
aS'Action'
p1986
aS'Comedy'
p1987
aS'Clyde Bruckman'
p1988
aS'engineer'
p1989
atp1990
Rp1991
sI106
g1
((lp1992
S'case'
p1993
aS'Mary Astor'
p1994
aS'criminals'
p1995
aS'liar'
p1996
aS'takes'
p1997
aS'Gladys George'
p1998
aS'Humphrey Bogart'
p1999
aS'Film-Noir'
p2000
aS'Crime'
p2001
aS'Drama'
p2002
aS'quest'
p2003
aS'John Huston'
p2004
aS'statuette'
p2005
aS'priceless'
p2006
atp2007
Rp2008
sI107
g1
((lp2009
S'Ridley Scott'
p2010
aS'Sci-Fi'
p2011
aS'space'
p2012
aS'runner'
p2013
aS'blade'
p2014
aS'Harrison Ford'
p2015
aS'maker'
p2016
aS'Drama'
p2017
aS'Rutger Hauer'
p2018
aS'Earth'
p2019
aS'ship'
p2020
aS'Sean Young'
p2021
aS'Deckard'
p2022
aS'Thriller'
p2023
aS'replicants'
p2024
atp2025
Rp2026
sI108
g1
((lp2027
S'grip'
p2028
aS'Mystery'
p2029
aS'woman'
p2030
aS'wife'
p2031
aS'Alfred Hitchcock'
p2032
aS'settles'
p2033
aS'Drama'
p2034
aS'Laurence Olivier'
p2035
aS'widower'
p2036
aS'Thriller'
p2037
aS'servants'
p2038
aS'memory'
p2039
aS'mansion'
p2040
aS'Joan Fontaine'
p2041
aS'marries'
p2042
aS'husband'
p2043
aS'George Sanders'
p2044
atp2045
Rp2046
sI109
g1
((lp2047
S'Family'
p2048
aS'relationship'
p2049
aS'jeopardy'
p2050
aS'Charles Chaplin'
p2051
aS'Drama'
p2052
aS'Tramp'
p2053
aS'child'
p2054
aS'Edna Purviance'
p2055
aS'Carl Miller'
p2056
aS'Comedy'
p2057
aS'events'
p2058
aS'Jackie Coogan'
p2059
atp2060
Rp2061
sI110
g1
((lp2062
S'possession'
p2063
aS'Kowalski'
p2064
aS'vet'
p2065
aS'Gran'
p2066
aS'Bee Vang'
p2067
aS'reform'
p2068
aS'Torino'
p2069
aS'Christopher Carley'
p2070
aS'Walt'
p2071
aS'teenager'
p2072
aS'neighbor'
p2073
aS'Hmong'
p2074
aS'Korean'
p2075
aS'Drama'
p2076
aS'War'
p2077
aS'Disgruntled'
p2078
aS'Clint Eastwood'
p2079
atp2080
Rp2081
sI111
g1
((lp2082
S'Al Pacino'
p2083
aS'Steven Bauer'
p2084
aS'Cuban'
p2085
aS'Michelle Pfeiffer'
p2086
aS'Miami'
p2087
aS'Brian De Palma'
p2088
aS'immigrant'
p2089
aS'drug'
p2090
aS'Crime'
p2091
aS'Drama'
p2092
aS'cartel'
p2093
aS'Thriller'
p2094
atp2095
Rp2096
sI112
g1
((lp2097
S'William H. Macy'
p2098
aS'Drama'
p2099
aS'work'
p2100
aS'police'
p2101
aS'Steve Buscemi'
p2102
aS'persistent'
p2103
aS'Marge'
p2104
aS'inept'
p2105
aS'pregnant'
p2106
aS'Jerry'
p2107
aS'Peter Stormare'
p2108
aS'crime'
p2109
aS'henchmen'
p2110
aS'Gunderson'
p2111
aS'Joel Coen'
p2112
aS'Lundegaard'
p2113
aS'Crime'
p2114
aS'falls'
p2115
aS'apart'
p2116
atp2117
Rp2118
sI113
g1
((lp2119
S'Jinpachi Nezu'
p2120
aS'sons'
p2121
aS'Tatsuya Nakadai'
p2122
aS'Akira Terao'
p2123
aS'War'
p2124
aS'Drama'
p2125
aS'ones'
p2126
aS'Akira Kurosawa'
p2127
aS'Action'
p2128
aS'lord'
p2129
aS'abdicates'
p2130
atp2131
Rp2132
sI114
g1
((lp2133
S'Joel Coen'
p2134
aS'"'
p2135
aS'John Goodman'
p2136
aS'Julianne Moore'
p2137
aS'buddies'
p2138
aS'Dude'
p2139
aS'rug'
p2140
aS'millionaire'
p2141
aS'enlists'
p2142
aS'Jeff Bridges'
p2143
aS'bowling'
p2144
aS'Crime'
p2145
aS'Comedy'
p2146
aS'Lebowski'
p2147
aS'restitution'
p2148
atp2149
Rp2150
sI115
g1
((lp2151
S'town'
p2152
aS'Mexican'
p2153
aS'story'
p2154
aS'kidnapping'
p2155
aS'police'
p2156
aS'Janet Leigh'
p2157
aS'Orson Welles'
p2158
aS'Stark'
p2159
aS'Crime'
p2160
aS'murder'
p2161
aS'Film-Noir'
p2162
aS'Charlton Heston'
p2163
aS'perverse'
p2164
aS'border'
p2165
aS'corruption'
p2166
aS'Thriller'
p2167
atp2168
Rp2169
sI116
g1
((lp2170
S'town'
p2171
aS'John Savage'
p2172
aS'USA'
p2173
aS'people'
p2174
aS'John Cazale'
p2175
aS'affects'
p2176
aS'Michael Cimino'
p2177
aS'War'
p2178
aS'Drama'
p2179
aS'Vietnam'
p2180
aS'lives'
p2181
aS'way'
p2182
aS'examination'
p2183
aS'war'
p2184
aS'Robert De Niro'
p2185
atp2186
Rp2187
sI117
g1
((lp2188
S'conform'
p2189
aS'J.D. Cannon'
p2190
aS'George Kennedy'
p2191
aS'Stuart Rosenberg'
p2192
aS'Crime'
p2193
aS'Drama'
p2194
aS'prison'
p2195
aS'Paul Newman'
p2196
aS'man'
p2197
atp2198
Rp2199
sI118
g1
((lp2200
S'search'
p2201
aS'Klondike'
p2202
aS'Mack Swain'
p2203
aS'Family'
p2204
aS'gold'
p2205
aS'Charles Chaplin'
p2206
aS'Tom Murray'
p2207
aS'Tramp'
p2208
aS'Adventure'
p2209
aS'Comedy'
p2210
aS'finds'
p2211
atp2212
Rp2213
sI119
g1
((lp2214
S'week'
p2215
aS'Nick Moran'
p2216
aS'million'
p2217
aS'Dexter Fletcher'
p2218
aS'working'
p2219
aS'pounds'
p2220
aS'money'
p2221
aS'half'
p2222
aS'Jason Flemyng'
p2223
aS'cash'
p2224
aS'Crime'
p2225
aS'game'
p2226
aS'stiffs'
p2227
aS'London'
p2228
aS'card'
p2229
aS'things'
p2230
aS'Thriller'
p2231
aS'Guy Ritchie'
p2232
aS'class'
p2233
aS'pool'
p2234
aS'stakes'
p2235
atp2236
Rp2237
sI120
g1
((lp2238
S'gone'
p2239
aS'Javier Bardem'
p2240
aS'deal'
p2241
aS'Rio'
p2242
aS'dollars'
p2243
aS'Violence'
p2244
aS'hunter'
p2245
aS'cash'
p2246
aS'drug'
p2247
aS'ensue'
p2248
aS'Drama'
p2249
aS'mayhem'
p2250
aS'Josh Brolin'
p2251
aS'Grande'
p2252
aS'Ethan Coen'
p2253
aS'Tommy Lee Jones'
p2254
aS'Crime'
p2255
aS'Thriller'
p2256
atp2257
Rp2258
sI121
g1
((lp2259
S'Frank Capra'
p2260
aS'story'
p2261
aS'family'
p2262
aS'reporter'
p2263
aS'Romance'
p2264
aS'Clark Gable'
p2265
aS'heiress'
p2266
aS'Claudette Colbert'
p2267
aS'Walter Connolly'
p2268
aS'Comedy'
p2269
aS'man'
p2270
atp2271
Rp2272
sI122
g1
((lp2273
S'town'
p2274
aS'City'
p2275
aS'story'
p2276
aS'Mickey Rourke'
p2277
aS'Jessica Alba'
p2278
aS'people'
p2279
aS'caught'
p2280
aS'Clive Owen'
p2281
aS'corruption'
p2282
aS'violent'
p2283
aS'Thriller'
p2284
aS'Basin'
p2285
aS'Crime'
p2286
aS'tells'
p2287
aS'film'
p2288
aS'Frank Miller'
p2289
atp2290
Rp2291
sI123
g1
((lp2292
S'socialite'
p2293
aS'star'
p2294
aS'theory'
p2295
aS'Farley Granger'
p2296
aS'pro'
p2297
aS'Film-Noir'
p2298
aS'Crime'
p2299
aS'strangers'
p2300
aS'Ruth Roman'
p2301
aS'Robert Walker'
p2302
aS'confronts'
p2303
aS'implement'
p2304
aS'Alfred Hitchcock'
p2305
aS'Thriller'
p2306
atp2307
Rp2308
sI124
g1
((lp2309
S'great'
p2310
aS'set'
p2311
aS'police'
p2312
aS'Robert Shaw'
p2313
aS'Steven Spielberg'
p2314
aS'island'
p2315
aS'Horror'
p2316
aS'Amity'
p2317
aS'shark'
p2318
aS'community'
p2319
aS'chief'
p2320
aS'scientist'
p2321
aS'fisherman'
p2322
aS'Adventure'
p2323
aS'Richard Dreyfuss'
p2324
aS'white'
p2325
aS'marine'
p2326
aS'Thriller'
p2327
aS'Roy Scheider'
p2328
atp2329
Rp2330
sI125
g1
((lp2331
S'trophy'
p2332
aS'Sharon Stone'
p2333
aS'murder'
p2334
aS'deception'
p2335
aS'Martin Scorsese'
p2336
aS'power'
p2337
aS'wife'
p2338
aS'money'
p2339
aS'Crime'
p2340
aS'Drama'
p2341
aS'mobster'
p2342
aS'Joe Pesci'
p2343
aS'Biography'
p2344
aS'gambling'
p2345
aS'empire'
p2346
aS'friends'
p2347
aS'occur'
p2348
aS'Greed'
p2349
aS'Robert De Niro'
p2350
atp2351
Rp2352
sI126
g1
((lp2353
S'Mystery'
p2354
aS'boy'
p2355
aS'spirits'
p2356
aS'Drama'
p2357
aS'Toni Collette'
p2358
aS'psychologist'
p2359
aS'Bruce Willis'
p2360
aS'Thriller'
p2361
aS'child'
p2362
aS'M. Night Shyamalan'
p2363
aS'Haley Joel Osment'
p2364
aS'seeks'
p2365
aS'help'
p2366
atp2367
Rp2368
sI127
g1
((lp2369
S'Drama'
p2370
aS'duality'
p2371
aS'Tom Berenger'
p2372
aS'Oliver Stone'
p2373
aS'recruit'
p2374
aS'war'
p2375
aS'horrors'
p2376
aS'Keith David'
p2377
aS'Vietnam'
p2378
aS'War'
p2379
aS'faces'
p2380
aS'Action'
p2381
aS'Willem Dafoe'
p2382
aS'crisis'
p2383
aS'man'
p2384
atp2385
Rp2386
sI128
g1
((lp2387
S'Mystery'
p2388
aS'Wilford Brimley'
p2389
aS'Sci-Fi'
p2390
aS'people'
p2391
aS'Horror'
p2392
aS'appearance'
p2393
aS'alien'
p2394
aS'Keith David'
p2395
aS'Scientists'
p2396
aS'Kurt Russell'
p2397
aS'John Carpenter'
p2398
aS'Antarctic'
p2399
atp2400
Rp2401
sI129
g1
((lp2402
S'Edinburgh'
p2403
aS'Ewan McGregor'
p2404
aS'drugs'
p2405
aS'friends'
p2406
aS'Danny Boyle'
p2407
aS'influence'
p2408
aS'scene'
p2409
aS'drug'
p2410
aS'Crime'
p2411
aS'Drama'
p2412
aS'tries'
p2413
aS'allure'
p2414
aS'Jonny Lee Miller'
p2415
aS'Ewen Bremner'
p2416
aS'Renton'
p2417
atp2418
Rp2419
sI130
g1
((lp2420
S'law'
p2421
aS'bank/train'
p2422
aS'Paul Newman'
p2423
aS'Crime'
p2424
aS'George Roy Hill'
p2425
aS'Robert Redford'
p2426
aS'Western'
p2427
aS'Katharine Ross'
p2428
aS'Bolivia'
p2429
aS'robbers'
p2430
aS'Biography'
p2431
aS'Adventure'
p2432
atp2433
Rp2434
sI131
g1
((lp2435
S'Joss Whedon'
p2436
aS'Robert Downey Jr.'
p2437
aS'form'
p2438
aS'army'
p2439
aS'Fury'
p2440
aS'humans'
p2441
aS'S.H.I.E.L.D.'
p2442
aS'Chris Evans'
p2443
aS'Nick'
p2444
aS'Loki'
p2445
aS'team'
p2446
aS'Action'
p2447
aS'Earth'
p2448
aS'Scarlett Johansson'
p2449
aS'super'
p2450
aS'Avengers'
p2451
atp2452
Rp2453
sI132
g1
((lp2454
S'town'
p2455
aS'returning'
p2456
aS'marshall'
p2457
aS'Drama'
p2458
aS'Gary Cooper'
p2459
aS'Western'
p2460
aS'Thomas Mitchell'
p2461
aS'refuses'
p2462
aS'Lloyd Bridges'
p2463
aS'finds'
p2464
aS'Fred Zinnemann'
p2465
atp2466
Rp2467
sI133
g1
((lp2468
S'land'
p2469
aS'Ray Bolger'
p2470
aS'Family'
p2471
aS'Fantasy'
p2472
aS'embarks'
p2473
aS'Wizard'
p2474
aS'Frank Morgan'
p2475
aS'Gale'
p2476
aS'Victor Fleming'
p2477
aS'quest'
p2478
aS'tornado'
p2479
aS'Adventure'
p2480
aS'Dorothy'
p2481
aS'home'
p2482
aS'Judy Garland'
p2483
atp2484
Rp2485
sI134
g1
((lp2486
S'Robin Williams'
p2487
aS'Drama'
p2488
aS'direction'
p2489
aS'Hunting'
p2490
aS'gift'
p2491
aS'Matt Damon'
p2492
aS'life'
p2493
aS'Will'
p2494
aS'psychologist'
p2495
aS'Gus Van Sant'
p2496
aS'mathematics'
p2497
aS'janitor'
p2498
aS'MIT'
p2499
aS'Ben Affleck'
p2500
aS'help'
p2501
atp2502
Rp2503
sI135
g1
((lp2504
S'Don Cheadle'
p2505
aS'story'
p2506
aS'Xolani Mali'
p2507
aS'Terry George'
p2508
aS'Hutu'
p2509
aS'thousand'
p2510
aS'hotel'
p2511
aS'Sophie Okonedo'
p2512
aS'Drama'
p2513
aS'manager'
p2514
aS'Rwanda'
p2515
aS'militia'
p2516
aS'struggle'
p2517
aS'Tutsi'
p2518
aS'Paul'
p2519
aS'History'
p2520
aS'refugees'
p2521
aS'Biography'
p2522
aS'Rusesabagina'
p2523
atp2524
Rp2525
sI136
g1
((lp2526
S'Now'
p2527
aS'gone.'
p2528
aS'David Carradine'
p2529
aS'part'
p2530
aS'Uma Thurman'
p2531
aS'team'
p2532
aS'Quentin Tarantino'
p2533
aS'Crime'
p2534
aS'Bride'
p2535
aS'vengeance'
p2536
aS'child'
p2537
aS'Action'
p2538
aS'Daryl Hannah'
p2539
aS'The'
p2540
aS'coma.'
p2541
aS'assassins'
p2542
aS'Thriller'
p2543
aS'womb'
p2544
atp2545
Rp2546
sI137
g1
((lp2547
S'Tom Hardy'
p2548
aS'arts'
p2549
aS'fighter'
p2550
aS'Joel Edgerton'
p2551
aS'tournament'
p2552
aS'father'
p2553
aS'brother'
p2554
aS'competition'
p2555
aS'son'
p2556
aS'Drama'
p2557
aS'collision'
p2558
aS'returns'
p2559
aS'boxer'
p2560
aS'corner'
p2561
aS'Nick Nolte'
p2562
aS'path'
p2563
aS'home'
p2564
aS'Sport'
p2565
aS"Gavin O'Connor"
p2566
aS'former'
p2567
atp2568
Rp2569
sI138
g1
((lp2570
S'Romance'
p2571
aS'Singer'
p2572
aS'Diane Keaton'
p2573
aS'love'
p2574
aS'Tony Roberts'
p2575
aS'Alvy'
p2576
aS'Drama'
p2577
aS'Woody Allen'
p2578
aS'comedian'
p2579
aS'York'
p2580
aS'Annie'
p2581
aS'New'
p2582
aS'ditsy'
p2583
aS'Comedy'
p2584
aS'Hall'
p2585
atp2586
Rp2587
sI139
g1
((lp2588
S'affair'
p2589
aS'woman'
p2590
aS'love'
p2591
aS'Victor Fleming'
p2592
aS'Civil'
p2593
aS'Romance'
p2594
aS'turbulent'
p2595
aS'Vivien Leigh'
p2596
aS'Drama'
p2597
aS'American'
p2598
aS'Reconstruction'
p2599
aS'Thomas Mitchell'
p2600
aS'carry'
p2601
aS"Barbara O'Neil"
p2602
aS'War'
p2603
aS'south'
p2604
aS'man'
p2605
atp2606
Rp2607
sI140
g1
((lp2608
S'misfortunes'
p2609
aS'Great'
p2610
aS'homeless'
p2611
aS'family'
p2612
aS'travel'
p2613
aS'Jane Darwell'
p2614
aS'Drama'
p2615
aS'California'
p2616
aS'Depression'
p2617
aS'They'
p2618
aS'Henry Fonda'
p2619
aS'John Ford'
p2620
aS'Midwest'
p2621
aS'land.'
p2622
aS'John Carradine'
p2623
atp2624
Rp2625
sI141
g1
((lp2626
S'Romance'
p2627
aS'woman'
p2628
aS'group'
p2629
aS'friends'
p2630
aS'Alfred Hitchcock'
p2631
aS'Claude Rains'
p2632
aS'Drama'
p2633
aS'How'
p2634
aS'America.'
p2635
aS'Thriller'
p2636
aS'Cary Grant'
p2637
aS'Nazi'
p2638
aS'Ingrid Bergman'
p2639
aS'South'
p2640
atp2641
Rp2642
sI142
g1
((lp2643
S'spirits'
p2644
aS'Family'
p2645
aS'country'
p2646
aS'Hayao Miyazaki'
p2647
aS'girls'
p2648
aS'adventures'
p2649
aS'Toshiyuki Amagasa'
p2650
aS'Fantasy'
p2651
aS'Animation'
p2652
aS'forest'
p2653
aS'mother'
p2654
aS'ailing'
p2655
aS'Paul Butcher'
p2656
aS'Noriko Hidaka'
p2657
atp2658
Rp2659
sI143
g1
((lp2660
S'wilderness.'
p2661
aS'student'
p2662
aS'Emory'
p2663
aS'series'
p2664
aS'shape'
p2665
aS'Sean Penn'
p2666
aS'possessions'
p2667
aS'Catherine Keener'
p2668
aS'Christopher'
p2669
aS'Adventure'
p2670
aS'way'
p2671
aS'Along'
p2672
aS'encounters'
p2673
aS'life'
p2674
aS'abandons'
p2675
aS'University'
p2676
aS'Alaska'
p2677
aS'Marcia Gay Harden'
p2678
aS'Drama'
p2679
aS'characters'
p2680
aS'Emile Hirsch'
p2681
aS'charity'
p2682
aS'account'
p2683
aS'savings'
p2684
aS'McCandless'
p2685
aS'Biography'
p2686
atp2687
Rp2688
sI144
g1
((lp2689
S'totalitarian'
p2690
aS'girl'
p2691
ag2135
aS'police'
p2692
aS'Upon'
p2693
aS'fight'
p2694
aS'Hugo Weaving'
p2695
aS'secret'
p2696
aS'Stephen Rea'
p2697
aS'tactics'
p2698
aS'Thriller'
p2699
aS'society.'
p2700
aS'chance'
p2701
aS'terrorist'
p2702
aS'V'
p2703
aS'Action'
p2704
aS'fighter'
p2705
aS'Natalie Portman'
p2706
aS'rescuing'
p2707
aS'freedom'
p2708
aS'shadowy'
p2709
aS'Fantasy'
p2710
aS'James McTeigue'
p2711
atp2712
Rp2713
sI145
g1
((lp2714
S'Terry Gilliam'
p2715
aS'life'
p2716
aS'Graham Chapman'
p2717
aS'door.'
p2718
aS'Christmas'
p2719
aS'Terry Jones'
p2720
aS'stable'
p2721
aS'John Cleese'
p2722
aS'Comedy'
p2723
aS'messiah'
p2724
aS'He'
p2725
atp2726
Rp2727
sI146
g1
((lp2728
S'Great'
p2729
aS'Reef'
p2730
aS'Barrier'
p2731
aS'son'
p2732
aS'Andrew Stanton'
p2733
aS'journey'
p2734
aS'clownfish'
p2735
aS'Adventure'
p2736
aS'Sydney'
p2737
aS'Ellen DeGeneres'
p2738
aS'home'
p2739
aS'Alexander Gould'
p2740
aS'Comedy'
p2741
aS'timid'
p2742
aS'Animation'
p2743
aS'Albert Brooks'
p2744
atp2745
Rp2746
sI147
g1
((lp2747
S'Viking'
p2748
aS'learns'
p2749
aS'Gerard Butler'
p2750
aS'Dean DeBlois'
p2751
aS'young'
p2752
aS'Jay Baruchel'
p2753
aS'dragon'
p2754
aS'Craig Ferguson'
p2755
aS'Animation'
p2756
aS'dragons'
p2757
aS'Adventure'
p2758
aS'Comedy'
p2759
aS'hapless'
p2760
aS'friend'
p2761
aS'creatures'
p2762
atp2763
Rp2764
sI148
g1
((lp2765
S'Mystery'
p2766
aS'plot'
p2767
aS'wife.'
p2768
aS'murder'
p2769
aS'Robert Cummings'
p2770
aS'things'
p2771
aS'pro'
p2772
aS'When'
p2773
aS'Grace Kelly'
p2774
aS'Crime'
p2775
aS'carries'
p2776
aS'B'
p2777
aS'plan'
p2778
aS'Ray Milland'
p2779
aS'Alfred Hitchcock'
p2780
aS'Thriller'
p2781
atp2782
Rp2783
sI149
g1
((lp2784
S'throne'
p2785
aS'King'
p2786
aS'story'
p2787
aS'unsure'
p2788
aS'Helena Bonham Carter'
p2789
aS'VI'
p2790
aS'Colin Firth'
p2791
aS'Derek Jacobi'
p2792
aS'Drama'
p2793
aS'Tom Hooper'
p2794
aS'Britain'
p2795
aS'therapist'
p2796
aS'speech'
p2797
aS'become'
p2798
aS'ascension'
p2799
aS'monarch'
p2800
aS'impromptu'
p2801
aS'George'
p2802
aS'Biography'
p2803
aS'History'
p2804
atp2805
Rp2806
sI150
g1
((lp2807
S'story'
p2808
aS'oil'
p2809
aS'madness'
p2810
aS'business'
p2811
aS'family'
p2812
aS'days'
p2813
aS'Martin Stringer'
p2814
aS'Drama'
p2815
aS'religion'
p2816
aS'Daniel Day-Lewis'
p2817
aS'Paul Thomas Anderson'
p2818
aS'prospector'
p2819
aS'Paul Dano'
p2820
atp2821
Rp2822
sI151
g1
((lp2823
S'Marlowe'
p2824
aS'case'
p2825
aS'murder'
p2826
aS'Mystery'
p2827
aS'family.'
p2828
aS'Howard Hawks'
p2829
aS'blackmail'
p2830
aS'Film-Noir'
p2831
aS'Crime'
p2832
aS'John Ridgely'
p2833
aS'complex'
p2834
aS'Humphrey Bogart'
p2835
aS'Lauren Bacall'
p2836
aS'Philip'
p2837
aS'Before'
p2838
atp2839
Rp2840
sI152
g1
((lp2841
S'Robert Mitchum'
p2842
aS'Shelley Winters'
p2843
aS'Lillian Gish'
p2844
aS'Film-Noir'
p2845
aS'Drama'
p2846
aS'robbery'
p2847
aS'Charles Laughton'
p2848
aS'daddy'
p2849
aS'marries'
p2850
aS'children'
p2851
aS'Thriller'
p2852
aS'widow'
p2853
atp2854
Rp2855
sI153
g1
((lp2856
S'ravings'
p2857
aS'network'
p2858
aS'Faye Dunaway'
p2859
aS'TV'
p2860
aS'media'
p2861
aS'profit'
p2862
aS'William Holden'
p2863
aS'Drama'
p2864
aS'revelations'
p2865
aS'Sidney Lumet'
p2866
aS'ex-TV'
p2867
aS'anchor'
p2868
aS'Peter Finch'
p2869
atp2870
Rp2871
sI154
g1
((lp2872
S'war'
p2873
aS'lead'
p2874
aS'Michael Biehn'
p2875
aS'son'
p2876
aS'travels'
p2877
aS'machines'
p2878
aS'Arnold Schwarzenegger'
p2879
aS'time'
p2880
aS'Action'
p2881
aS'Linda Hamilton'
p2882
aS'assassin'
p2883
aS'James Cameron'
p2884
aS'humanity'
p2885
aS'waitress'
p2886
aS'Sci-Fi'
p2887
atp2888
Rp2889
sI155
g1
((lp2890
S'Jack Hawkins'
p2891
aS'freedom'
p2892
aS'Haya Harareet'
p2893
aS'revenge'
p2894
aS'slavery'
p2895
aS'Drama'
p2896
aS'sent'
p2897
aS'William Wyler'
p2898
aS'Action'
p2899
aS'Charlton Heston'
p2900
aS'prince'
p2901
aS'friend'
p2902
aS'Adventure'
p2903
atp2904
Rp2905
sI156
g1
((lp2906
S'trainer'
p2907
aS'woman'
p2908
aS'works'
p2909
aS'Drama'
p2910
aS'Hilary Swank'
p2911
aS'Morgan Freeman'
p2912
aS'Sport'
p2913
aS'Clint Eastwood'
p2914
atp2915
Rp2916
sI157
g1
((lp2917
S'body'
p2918
aS'boy'
p2919
aS'Rob Reiner'
p2920
aS'boyhood'
p2921
aS'Corey Feldman'
p2922
aS'missing'
p2923
aS'Wil Wheaton'
p2924
aS'writer'
p2925
aS'recounts'
p2926
aS'Drama'
p2927
aS'death'
p2928
aS'friend'
p2929
aS'River Phoenix'
p2930
aS'journey'
p2931
aS'Adventure'
p2932
atp2933
Rp2934
sI158
g1
((lp2935
S'Drama'
p2936
aS'Fredric March'
p2937
aS'families'
p2938
aS'Romance'
p2939
aS'Myrna Loy'
p2940
aS'WWII'
p2941
aS'William Wyler'
p2942
aS'Dana Andrews'
p2943
aS'home'
p2944
aS'America'
p2945
aS'veterans'
p2946
aS'War'
p2947
atp2948
Rp2949
sI159
g1
((lp2950
S'Andie MacDowell'
p2951
aS'Bill Murray'
p2952
aS'Drama'
p2953
aS'Fantasy'
p2954
aS'weatherman'
p2955
aS'Chris Elliott'
p2956
aS'Harold Ramis'
p2957
aS'Comedy'
p2958
aS'day'
p2959
atp2960
Rp2961
sI160
g1
((lp2962
S'Mystery'
p2963
aS'accident'
p2964
aS'Sci-Fi'
p2965
aS'series'
p2966
aS'crimes'
p2967
aS'Holmes Osborne'
p2968
aS'Richard Kelly'
p2969
aS'Drama'
p2970
aS'teenager'
p2971
aS'rabbit'
p2972
aS'Jake Gyllenhaal'
p2973
aS'bizarre'
p2974
aS'visions'
p2975
aS'bunny'
p2976
aS'Mary McDonnell'
p2977
atp2978
Rp2979
sI161
g1
((lp2980
S'Mystery'
p2981
aS'information'
p2982
aS'Terry Gilliam'
p2983
aS'Sci-Fi'
p2984
aS'convict'
p2985
aS'Madeleine Stowe'
p2986
aS'disease'
p2987
aS'Joseph Melito'
p2988
aS'planet'
p2989
aS'virus'
p2990
aS'future'
p2991
aS'Bruce Willis'
p2992
aS'time'
p2993
aS'world'
p2994
aS'Thriller'
p2995
aS'population'
p2996
atp2997
Rp2998
sI162
g1
((lp2999
S'Sidney Lumet'
p3000
aS'hostage'
p3001
aS'media'
p3002
aS'Penelope Allen'
p3003
aS'circus'
p3004
aS'Sully Boyar'
p3005
aS'Crime'
p3006
aS'Drama'
p3007
aS'John Cazale'
p3008
aS'lover'
p3009
aS'situation'
p3010
aS'operation'
p3011
aS'bank'
p3012
aS'man'
p3013
atp3014
Rp3015
sI163
g1
((lp3016
S'living'
p3017
aS'Melbourne'
p3018
aS'Adam Elliot'
p3019
aS'Toni Collette'
p3020
aS'Max'
p3021
aS'pals'
p3022
aS'Philip Seymour Hoffman'
p3023
aS'Barry Humphries'
p3024
aS'tale'
p3025
aS'suburbs'
p3026
aS'Animation'
p3027
aS'York'
p3028
aS'Drama'
p3029
aS'New'
p3030
aS'girl'
p3031
aS'Comedy'
p3032
aS'friendship'
p3033
aS'Mary'
p3034
aS'man'
p3035
atp3036
Rp3037
sI164
g1
((lp3038
S'Mystery'
p3039
aS'ballet'
p3040
ag2135
aS'Natalie Portman'
p3041
aS'lead'
p3042
aS'Darren Aronofsky'
p3043
aS'Swan'
p3044
aS'mind'
p3045
aS'Lake'
p3046
aS'Odile'
p3047
aS'Drama'
p3048
aS'Vincent Cassel'
p3049
aS'dancer'
p3050
aS'role'
p3051
aS'delicate'
p3052
aS'Black'
p3053
aS'Mila Kunis'
p3054
aS'Odette'
p3055
aS'White'
p3056
aS'Princess'
p3057
aS'Thriller'
p3058
atp3059
Rp3060
sI165
g1
((lp3061
S'Bibi Andersson'
p3062
aS'persona'
p3063
aS'Margaretha Krook'
p3064
aS'Ingmar Bergman'
p3065
aS'Liv Ullmann'
p3066
aS'actress'
p3067
aS'Drama'
p3068
aS'charge'
p3069
aS'hers'
p3070
aS'nurse'
p3071
aS'finds'
p3072
atp3073
Rp3074
sI166
g1
((lp3075
S'Ben Kingsley'
p3076
aS'Candice Bergen'
p3077
aS'Drama'
p3078
aS'Edward Fox'
p3079
aS'Richard Attenborough'
p3080
aS'Biography'
p3081
aS'History'
p3082
atp3083
Rp3084
sI167
g1
((lp3085
S'Stanley Kubrick'
p3086
aS'daring'
p3087
aS'Vince Edwards'
p3088
aS'Crooks'
p3089
aS'racetrack'
p3090
aS'Film-Noir'
p3091
aS'Crime'
p3092
aS'Sterling Hayden'
p3093
aS'Coleen Gray'
p3094
aS'robbery'
p3095
aS'Thriller'
p3096
atp3097
Rp3098
sI168
g1
((lp3099
S'Benjamin'
p3100
aS'happens'
p3101
aS'Braddock'
p3102
aS'love'
p3103
aS'daughter'
p3104
aS'business'
p3105
aS'wife'
p3106
aS'Romance'
p3107
aS'Elaine'
p3108
aS'father'
p3109
aS'Mrs.'
p3110
aS'graduate'
p3111
aS'Drama'
p3112
aS'college'
p3113
aS'Katharine Ross'
p3114
aS'partner'
p3115
aS'Dustin Hoffman'
p3116
aS'Comedy'
p3117
aS'Robinson'
p3118
aS'Anne Bancroft'
p3119
aS'Mike Nichols'
p3120
atp3121
Rp3122
sI169
g1
((lp3123
S'life'
p3124
aS'Jennifer Connelly'
p3125
aS'cryptography'
p3126
aS'Russell Crowe'
p3127
aS'work'
p3128
aS'accepts'
p3129
aS'Drama'
p3130
aS'turn'
p3131
aS'Ron Howard'
p3132
aS'Ed Harris'
p3133
aS'Biography'
p3134
atp3135
Rp3136
sI170
g1
((lp3137
S'giants'
p3138
aS'yes'
p3139
aS'Cary Elwes'
p3140
aS'Family'
p3141
aS'Mandy Patinkin'
p3142
aS'princess'
p3143
aS'tale'
p3144
aS'Rob Reiner'
p3145
aS'Adventure'
p3146
aS'kissing'
p3147
aS'fairy'
p3148
aS'Comedy'
p3149
aS'swordplay'
p3150
aS'prince'
p3151
aS'Chris Sarandon'
p3152
atp3153
Rp3154
sI171
g1
((lp3155
S'Mountain'
p3156
ag2135
aS'group'
p3157
aS'Lonely'
p3158
aS'mountain'
p3159
aS'Bilbo'
p3160
aS'Smaug'
p3161
aS'stolen'
p3162
aS'Martin Freeman'
p3163
aS'dragon'
p3164
aS'Fantasy'
p3165
aS'journey'
p3166
aS'Baggins'
p3167
aS'Adventure'
p3168
aS'Hobbit'
p3169
aS'home'
p3170
aS'Richard Armitage'
p3171
aS'Peter Jackson'
p3172
aS'Ian McKellen'
p3173
atp3174
Rp3175
sI172
g1
((lp3176
S'survives'
p3177
aS'Ang Lee'
p3178
aS'survivor'
p3179
aS'disaster'
p3180
aS'discovery.'
p3181
aS'Fantasy'
p3182
aS'Adventure'
p3183
aS'Irrfan Khan'
p3184
aS'Suraj Sharma'
p3185
aS'connection'
p3186
aS'Bengal'
p3187
aS'tiger'
p3188
aS'cast'
p3189
aS'While'
p3190
aS'journey'
p3191
aS'adventure'
p3192
aS'sea'
p3193
aS'Drama'
p3194
aS'Adil Hussain'
p3195
aS'fearsome'
p3196
aS'man'
p3197
atp3198
Rp3199
sI173
g1
((lp3200
S'Robert Rossen'
p3201
aS'plays'
p3202
aS'champion'
p3203
aS'Jackie Gleason'
p3204
aS'Paul Newman'
p3205
aS'Drama'
p3206
aS'player'
p3207
aS'pool'
p3208
aS'Piper Laurie'
p3209
aS'Sport'
p3210
aS'match'
p3211
atp3212
Rp3213
sI174
g1
((lp3214
S'aging'
p3215
aS'towards'
p3216
aS'pain'
p3217
aS'help'
p3218
aS'couple'
p3219
aS'George Segal'
p3220
aS'Drama'
p3221
aS'Elizabeth Taylor'
p3222
aS'Richard Burton'
p3223
aS'Mike Nichols'
p3224
aS'Comedy'
p3225
aS'alcohol'
p3226
atp3227
Rp3228
sI175
g1
((lp3229
S'A'
p3230
aS'Mumbai'
p3231
aS'Romance'
p3232
aS'To'
p3233
aS'Indian'
p3234
aS'Wants'
p3235
aS'Be'
p3236
ag2135
aS'explain'
p3237
aS'Who'
p3238
aS'version'
p3239
aS'suspicion'
p3240
aS'Anil Kapoor'
p3241
aS'events'
p3242
aS'Thriller'
p3243
aS'teen'
p3244
aS'life'
p3245
aS'Saurabh Shukla'
p3246
aS'Millionaire'
p3247
aS'slums'
p3248
aS'Drama'
p3249
aS'cheating'
p3250
aS'answers'
p3251
aS'Danny Boyle'
p3252
aS'Dev Patel'
p3253
aS'history'
p3254
atp3255
Rp3256
sI176
g1
((lp3257
S'Richard Basehart'
p3258
aS'pain'
p3259
aS'Anthony Quinn'
p3260
aS'Giulietta Masina'
p3261
aS'Drama'
p3262
aS'traveling'
p3263
aS'way'
p3264
aS'entertainer'
p3265
aS'girl'
p3266
aS'Federico Fellini'
p3267
atp3268
Rp3269
sI177
g1
((lp3270
S'distance'
p3271
aS'Sport'
p3272
aS'John G. Avildsen'
p3273
aS'heavyweight'
p3274
aS'Burt Young'
p3275
aS'fight'
p3276
aS'Drama'
p3277
aS'chance'
p3278
aS'boxer'
p3279
aS'champ'
p3280
aS'time'
p3281
aS'lifetime'
p3282
aS'bout'
p3283
aS'gets'
p3284
aS'Sylvester Stallone'
p3285
aS'Talia Shire'
p3286
atp3287
Rp3288
sI178
g1
((lp3289
S'case'
p3290
aS'Mystery'
p3291
aS'wife.'
p3292
aS'murder'
p3293
aS'truth'
p3294
aS'Lee Remick'
p3295
aS'What'
p3296
aS'Ben Gazzara'
p3297
aS'insanity'
p3298
aS'Drama'
p3299
aS'trial'
p3300
aS'victim'
p3301
aS'James Stewart'
p3302
aS'Crime'
p3303
aS'Otto Preminger'
p3304
aS'defendant'
p3305
atp3306
Rp3307
sI179
g1
((lp3308
S'Communists'
p3309
aS'Mystery'
p3310
aS'Janet Leigh'
p3311
aS'POW'
p3312
aS'Romance'
p3313
aS'Frank Sinatra'
p3314
aS'Drama'
p3315
aS'prisoner'
p3316
aS'Korean'
p3317
aS'John Frankenheimer'
p3318
aS'War'
p3319
aS'assassin.'
p3320
aS'Laurence Harvey'
p3321
atp3322
Rp3323
sI180
g1
((lp3324
S'teenage'
p3325
aS'help'
p3326
aS'William Friedkin'
p3327
aS'Horror'
p3328
aS'priests'
p3329
aS'Ellen Burstyn'
p3330
aS'entity'
p3331
aS'Max von Sydow'
p3332
aS'Lee J. Cobb'
p3333
aS'Thriller'
p3334
aS'mother'
p3335
aS'girl'
p3336
aS'seeks'
p3337
atp3338
Rp3339
sI181
g1
((lp3340
S'aging'
p3341
ag2135
aS'group'
p3342
aS'Ernest Borgnine'
p3343
aS'West'
p3344
aS'Sam Peckinpah'
p3345
aS'outlaws'
p3346
aS'American'
p3347
aS'score'
p3348
aS'Western'
p3349
aS'William Holden'
p3350
aS'Robert Ryan'
p3351
atp3352
Rp3353
sI182
g1
((lp3354
S'Romance'
p3355
aS'Vera Miles'
p3356
aS'outlaw'
p3357
aS'killing'
p3358
aS'Drama'
p3359
aS'returns'
p3360
aS'Western'
p3361
aS'truth'
p3362
aS'James Stewart'
p3363
aS'senator'
p3364
aS'deed'
p3365
aS'John Wayne'
p3366
aS'tells'
p3367
aS'friend'
p3368
aS'John Ford'
p3369
atp3370
Rp3371
sI183
g1
((lp3372
S'body'
p3373
aS'Thriller'
p3374
ag2135
aS'hide'
p3375
aS'family'
p3376
aS'means'
p3377
aS'John Dall'
p3378
aS'Alfred Hitchcock'
p3379
aS'men'
p3380
aS'Dick Hogan'
p3381
aS'crime'
p3382
aS'Drama'
p3383
aS'dinner'
p3384
aS'apartment'
p3385
aS'perfection'
p3386
aS'classmate'
p3387
aS'Farley Granger'
p3388
aS'party'
p3389
aS'Crime'
p3390
aS'friends'
p3391
aS'inferior'
p3392
atp3393
Rp3394
sI184
g1
((lp3395
S'Drama'
p3396
aS'J.J.'
p3397
aS'William Holden'
p3398
aS'German'
p3399
aS'POW'
p3400
aS'prisoners'
p3401
aS'camp'
p3402
aS'Otto Preminger'
p3403
aS'marketeer'
p3404
aS'II'
p3405
aS'Billy Wilder'
p3406
aS'Sefton'
p3407
aS'Don Taylor'
p3408
aS'barracks'
p3409
aS'World'
p3410
aS'informer'
p3411
aS'Comedy'
p3412
aS'War'
p3413
aS'Thriller'
p3414
atp3415
Rp3416
sI185
g1
((lp3417
S'heart'
p3418
aS'Patrick Magee'
p3419
aS'Century'
p3420
aS'wins'
p3421
aS'Romance'
p3422
aS"Ryan O'Neal"
p3423
aS'Stanley Kubrick'
p3424
aS'dead'
p3425
aS'Drama'
p3426
aS'rogue'
p3427
aS'Adventure'
p3428
aS'position'
p3429
aS'Marisa Berenson'
p3430
aS'aristocracy'
p3431
aS'husband'
p3432
aS'widow'
p3433
atp3434
Rp3435
sI186
g1
((lp3436
S'Mystery'
p3437
aS'theater'
p3438
aS'wife'
p3439
aS'wits'
p3440
aS'results'
p3441
aS'Laurence Olivier'
p3442
aS'Alec Cawthorne'
p3443
aS'Michael Caine'
p3444
aS'Joseph L. Mankiewicz'
p3445
aS'loves'
p3446
aS'lover'
p3447
aS'battle'
p3448
aS'invites'
p3449
aS'Thriller'
p3450
aS'man'
p3451
atp3452
Rp3453
sI187
g1
((lp3454
S'Drama'
p3455
aS'room'
p3456
aS'Zone'
p3457
aS'area'
p3458
aS'Aleksandr Kaydanovskiy'
p3459
aS'men'
p3460
aS'Anatoliy Solonitsyn'
p3461
aS'leads'
p3462
aS'Fantasy'
p3463
aS'Adventure'
p3464
aS'Alisa Freyndlikh'
p3465
aS'guide'
p3466
aS'Andrey Tarkovskiy'
p3467
atp3468
Rp3469
sI188
g1
((lp3470
S'Jim Sheridan'
p3471
aS'Thriller'
p3472
aS'Alison Crosbie'
p3473
aS'I.R.A.'
p3474
aS'imprisons'
p3475
aS'freedom'
p3476
aS'confession'
p3477
aS'father'
p3478
aS'Drama'
p3479
aS'Philip King'
p3480
aS'helps'
p3481
aS'lawyer'
p3482
aS'Daniel Day-Lewis'
p3483
aS'man'
p3484
aS'Biography'
p3485
aS'bombing'
p3486
atp3487
Rp3488
sI189
g1
((lp3489
S'Mystery'
p3490
aS'cop'
p3491
aS'story'
p3492
aS'police'
p3493
aS'Wai-keung Lau'
p3494
aS'objectives'
p3495
aS'cop.'
p3496
aS'Andy Lau'
p3497
aS'undercover'
p3498
aS'Their'
p3499
aS'Tony Leung Chiu Wai'
p3500
aS'department'
p3501
aS'Anthony Wong Chau-Sang'
p3502
aS'Crime'
p3503
aS'mole'
p3504
aS'Thriller'
p3505
atp3506
Rp3507
sI190
g1
((lp3508
S'Gregory Peck'
p3509
aS'Romance'
p3510
aS'newsman'
p3511
aS'love'
p3512
aS'escapes'
p3513
aS'Audrey Hepburn'
p3514
aS'falls'
p3515
aS'Drama'
p3516
aS'Rome'
p3517
aS'William Wyler'
p3518
aS'guardians'
p3519
aS'Comedy'
p3520
aS'princess'
p3521
aS'Eddie Albert'
p3522
atp3523
Rp3524
sI191
g1
((lp3525
S'province'
p3526
aS'Detective'
p3527
aS'woman'
p3528
aS'underwear.'
p3529
aS'Mystery'
p3530
aS'Gyunggi'
p3531
aS'Park'
p3532
aS'Roe-ha Kim'
p3533
aS'Crime'
p3534
aS'Drama'
p3535
aS'Sang-kyung Kim'
p3536
aS'Korea'
p3537
aS'Kang-ho Song'
p3538
aS'Cho..'
p3539
aS'Joon-ho Bong'
p3540
aS'Doo-Man'
p3541
aS'South'
p3542
atp3543
Rp3544
sI192
g1
((lp3545
S'allies'
p3546
aS'Geoffrey Rush'
p3547
aS'Orlando Bloom'
p3548
aS'love'
p3549
aS'Sparrow'
p3550
aS'governor'
p3551
aS'teams'
p3552
aS'Will'
p3553
aS'Fantasy'
p3554
aS'Gore Verbinski'
p3555
aS'Jack'
p3556
aS'Action'
p3557
aS'daughter'
p3558
aS'Turner'
p3559
aS'Captain'
p3560
aS'Johnny Depp'
p3561
aS'pirate'
p3562
aS'Adventure'
p3563
atp3564
Rp3565
sI193
g1
((lp3566
S'life'
p3567
aS'Sci-Fi'
p3568
aS'show'
p3569
aS'TV'
p3570
aS'Drama'
p3571
aS'Jim Carrey'
p3572
aS'discovers'
p3573
aS'Laura Linney'
p3574
aS'Noah Emmerich'
p3575
aS'Peter Weir'
p3576
aS'Comedy'
p3577
aS'insurance'
p3578
aS'salesman/adjuster'
p3579
atp3580
Rp3581
sI194
g1
((lp3582
S'Comedy'
p3583
aS'city'
p3584
aS'enters'
p3585
aS'Pete Docter'
p3586
aS'power'
p3587
aS'Billy Crystal'
p3588
aS'Mary Gibbs'
p3589
aS'John Goodman'
p3590
aS'children'
p3591
aS'Animation'
p3592
aS'finds'
p3593
aS'Sulley'
p3594
aS'Adventure'
p3595
aS'scaring'
p3596
aS'world'
p3597
aS'themselves'
p3598
aS'Monstropolis'
p3599
aS'scarer'
p3600
aS'Monsters'
p3601
atp3602
Rp3603
sI195
g1
((lp3604
S'Sharlto Copley'
p3605
aS'Sci-Fi'
p3606
aS'Jason Cope'
p3607
aS'government'
p3608
aS'Nathalie Boltt'
p3609
aS'Neill Blomkamp'
p3610
aS'agent'
p3611
aS'race'
p3612
aS'biotechnology'
p3613
aS'Action'
p3614
aS'Earth'
p3615
aS'conditions'
p3616
aS'spirit'
p3617
aS'Thriller'
p3618
atp3619
Rp3620
sI196
g1
((lp3621
S'search'
p3622
aS'David Yates'
p3623
aS'Family'
p3624
aS'Ron'
p3625
aS'Michael Gambon'
p3626
aS'Horcruxes'
p3627
aS'Voldemort'
p3628
aS'Dark'
p3629
aS'Fantasy'
p3630
aS'Rupert Grint'
p3631
aS'Hermione'
p3632
aS'Harry'
p3633
aS'Lord'
p3634
aS'Daniel Radcliffe'
p3635
aS'effort'
p3636
aS'Adventure'
p3637
atp3638
Rp3639
sI197
g1
((lp3640
S'Simon Yam'
p3641
aS'Wilson Yip'
p3642
aS'account'
p3643
aS'art'
p3644
aS'Chinese'
p3645
aS'Donnie Yen'
p3646
aS'Chun'
p3647
aS'arts'
p3648
aS'Drama'
p3649
aS'Ka Tung Lam'
p3650
aS'master'
p3651
aS'Yip'
p3652
aS'Action'
p3653
aS'Wing'
p3654
aS'Biography'
p3655
aS'Man'
p3656
atp3657
Rp3658
sI198
g1
((lp3659
S'Brad Bird'
p3660
aS'Ian Holm'
p3661
aS'alliance'
p3662
aS'Family'
p3663
aS'form'
p3664
aS'restaurant'
p3665
aS'Lou Romano'
p3666
aS'worker'
p3667
aS'chef'
p3668
aS'genius'
p3669
aS'rat'
p3670
aS'Animation'
p3671
aS'Patton Oswalt'
p3672
aS'Comedy'
p3673
aS'dreams'
p3674
aS'kitchen'
p3675
atp3676
Rp3677
sI199
g1
((lp3678
S'Spock'
p3679
aS'brash'
p3680
aS'Chris Pine'
p3681
aS'Federation'
p3682
aS'Leonard Nimoy'
p3683
aS'James'
p3684
aS'time'
p3685
aS'father'
p3686
aS'holes'
p3687
aS'J.J. Abrams'
p3688
aS'T.'
p3689
aS'Kirk'
p3690
aS'Mr.'
p3691
aS'legacy'
p3692
aS'Adventure'
p3693
aS'Zachary Quinto'
p3694
aS'Romulan'
p3695
aS'Action'
p3696
aS'planet'
p3697
aS'check'
p3698
aS'Sci-Fi'
p3699
atp3700
Rp3701
sI200
g1
((lp3702
S'Elia Kazan'
p3703
aS'Orleans'
p3704
aS'sister'
p3705
aS'crumbles'
p3706
aS'DuBois'
p3707
aS'Marlon Brando'
p3708
aS'Vivien Leigh'
p3709
aS'reality'
p3710
aS'Blanche'
p3711
aS'Disturbed'
p3712
aS'Kim Hunter'
p3713
aS'brother-in-law'
p3714
aS'New'
p3715
aS'Drama'
p3716
atp3717
Rp3718
sI201
g1
((lp3719
S'breakdown'
p3720
aS'amok'
p3721
aS'suffers'
p3722
aS'Sam Neill'
p3723
aS'Sci-Fi'
p3724
aS'power'
p3725
aS'Laura Dern'
p3726
aS'park'
p3727
aS'theme'
p3728
aS'exhibits'
p3729
aS'dinosaur'
p3730
aS'tour'
p3731
aS'Adventure'
p3732
aS'Steven Spielberg'
p3733
aS'Jeff Goldblum'
p3734
aS'preview'
p3735
atp3736
Rp3737
sI202
g1
((lp3738
g1173
aS'disillusionment'
p3739
aS'War'
p3740
aS'Drama'
p3741
aS'soldier'
p3742
aS'Lew Ayres'
p3743
aS'faces'
p3744
aS'World'
p3745
aS'Louis Wolheim'
p3746
aS'Lewis Milestone'
p3747
aS'horror'
p3748
aS'John Wray'
p3749
atp3750
Rp3751
sI203
g1
((lp3752
S'Teddy'
p3753
aS'Mystery'
p3754
aS'Martin Scorsese'
p3755
aS'Mark Ruffalo'
p3756
aS'disappearance'
p3757
aS'U.S.'
p3758
aS'Daniels'
p3759
aS'murderess'
p3760
aS'Drama'
p3761
aS'Ben Kingsley'
p3762
aS'Leonardo DiCaprio'
p3763
aS'Marshal'
p3764
aS'Thriller'
p3765
atp3766
Rp3767
sI204
g1
((lp3768
S'Gary Trousdale'
p3769
aS'Family'
p3770
aS'Richard White'
p3771
aS'Belle'
p3772
aS'father'
p3773
aS'Beast'
p3774
aS'Fantasy'
p3775
aS"Paige O'Hara"
p3776
aS'Animation'
p3777
aS'discovers'
p3778
aS'Robby Benson'
p3779
aS'prince'
p3780
aS'captor'
p3781
atp3782
Rp3783
sI205
g1
((lp3784
S'fortune'
p3785
aS'Raymond'
p3786
aS'Valeria Golino'
p3787
aS'Tom Cruise'
p3788
aS'Charlie'
p3789
aS'yuppie'
p3790
aS'father'
p3791
aS'brother'
p3792
aS'savant'
p3793
aS'Drama'
p3794
aS'Babbitt'
p3795
aS'pittance'
p3796
aS'Dustin Hoffman'
p3797
aS'Barry Levinson'
p3798
atp3799
Rp3800
sI206
g1
((lp3801
S'Romance'
p3802
aS'They'
p3803
aS'lost'
p3804
aS'Rajkumar Hirani'
p3805
aS'recall'
p3806
aS'Aamir Khan'
p3807
aS'days'
p3808
aS'rest'
p3809
aS'revisit'
p3810
aS'Drama'
p3811
aS'idiots'
p3812
aS'Madhavan'
p3813
aS'college'
p3814
aS'Kareena Kapoor'
p3815
aS'companion.'
p3816
aS'memories'
p3817
aS'world'
p3818
aS'Comedy'
p3819
aS'friends'
p3820
aS'friend'
p3821
atp3822
Rp3823
sI207
g1
((lp3824
S'neighbors'
p3825
aS'Mystery'
p3826
aS'life'
p3827
aS'apartment'
p3828
aS'John Cassavetes'
p3829
aS'wife'
p3830
aS'Roman Polanski'
p3831
aS'couple'
p3832
aS'move'
p3833
aS'When'
p3834
aS'paranoia'
p3835
aS'Drama'
p3836
aS'safety'
p3837
aS'child'
p3838
aS'occurrences.'
p3839
aS'Ruth Gordon'
p3840
aS'unborn'
p3841
aS'Horror'
p3842
aS'Mia Farrow'
p3843
atp3844
Rp3845
sI208
g1
((lp3846
S'Peggy Dow'
p3847
aS'Josephine Hull'
p3848
aS'Drama'
p3849
aS'Elwood'
p3850
aS'Henry Koster'
p3851
aS'rabbit'
p3852
aS'James Stewart'
p3853
aS'Dowd'
p3854
aS'Comedy'
p3855
aS'P.'
p3856
aS'friend'
p3857
aS'man'
p3858
atp3859
Rp3860
sI209
g1
((lp3861
S'boy'
p3862
aS'school'
p3863
aS'art'
p3864
aS'compassion'
p3865
aS'Darsheel Safary'
p3866
aS'Tanay Chheda'
p3867
aS'struggles'
p3868
aS'Drama'
p3869
aS'patience'
p3870
aS'eight'
p3871
aS'year'
p3872
aS'Aamir Khan'
p3873
aS'problem'
p3874
aS'troublemaker'
p3875
aS'teacher'
p3876
atp3877
Rp3878
sI210
g1
((lp3879
S'Mystery'
p3880
aS'Sean Penn'
p3881
aS'daughter'
p3882
aS'circumstance'
p3883
aS'men'
p3884
aS'Tim Robbins'
p3885
aS'loses'
p3886
aS'Drama'
p3887
aS'tragedy'
p3888
aS'lives'
p3889
aS'Kevin Bacon'
p3890
aS'Crime'
p3891
aS'childhood'
p3892
aS'Clint Eastwood'
p3893
atp3894
Rp3895
sI211
g1
((lp3896
S'sentence'
p3897
aS'island'
p3898
aS'Steve McQueen'
p3899
aS'escape'
p3900
aS'Crime'
p3901
aS'Drama'
p3902
aS'Victor Jory'
p3903
aS'prison'
p3904
aS'Dustin Hoffman'
p3905
aS'criminal'
p3906
aS'Franklin J. Schaffner'
p3907
aS'inspires'
p3908
aS'Biography'
p3909
aS'man'
p3910
atp3911
Rp3912
sI212
g1
((lp3913
S'Romance'
p3914
aS'Diane Keaton'
p3915
aS'love'
p3916
aS'brings'
p3917
aS'Michael Murphy'
p3918
aS'Drama'
p3919
aS'Woody Allen'
p3920
aS'Yorker'
p3921
aS'New'
p3922
aS'mistress'
p3923
aS'Comedy'
p3924
aS'friend'
p3925
atp3926
Rp3927
sI213
g1
((lp3928
S'seniors'
p3929
aS'Romance'
p3930
aS'Ezra Miller'
p3931
aS'Logan Lerman'
p3932
aS'Drama'
p3933
aS'Paul Rudd'
p3934
aS'introvert'
p3935
aS'freshman'
p3936
aS'world'
p3937
aS'Stephen Chbosky'
p3938
aS'wings'
p3939
atp3940
Rp3941
sI214
g1
((lp3942
S'boy'
p3943
aS'Young-min Kim'
p3944
aS'wise'
p3945
aS'Yeong-su Oh'
p3946
aS'lake'
p3947
aS'monk'
p3948
aS'monk.'
p3949
aS'Drama'
p3950
aS'seasons'
p3951
aS'lives'
p3952
aS'Ki-duk Kim'
p3953
aS'master'
p3954
aS'temple.'
p3955
aS'place'
p3956
aS'floating'
p3957
aS'years'
p3958
aS'teaches'
p3959
aS'The'
p3960
aS'film'
p3961
atp3962
Rp3963
sI215
g1
((lp3964
S'point'
p3965
aS'basis'
p3966
aS'decides'
p3967
aS'Viola Davis'
p3968
aS'aspiring'
p3969
aS'rights'
p3970
aS'maids'
p3971
aS'Tate Taylor'
p3972
aS'author'
p3973
aS'Emma Stone'
p3974
aS'Drama'
p3975
aS'book'
p3976
aS'Bryce Dallas Howard'
p3977
aS'families'
p3978
aS'view'
p3979
aS'hardships'
p3980
aS'movement'
p3981
atp3982
Rp3983
sI216
g1
((lp3984
S'Romance'
p3985
aS'life'
p3986
aS'Mickey Rourke'
p3987
aS'Marisa Tomei'
p3988
aS'Darren Aronofsky'
p3989
aS'Drama'
p3990
aS'quest'
p3991
aS'struggle'
p3992
aS'wrestler'
p3993
aS'Evan Rachel Wood'
p3994
aS'dispiriting'
p3995
aS'ring'
p3996
aS'Sport'
p3997
aS'finds'
p3998
atp3999
Rp4000
sI217
g1
((lp4001
S'Capone'
p4002
aS'Federal'
p4003
aS'Brian De Palma'
p4004
aS'Sean Connery'
p4005
aS'Ness'
p4006
aS'Agent'
p4007
aS'Al'
p4008
aS'Drama'
p4009
aS'Kevin Costner'
p4010
aS'team'
p4011
aS'Charles Martin Smith'
p4012
aS'Crime'
p4013
aS'Eliot'
p4014
aS'corruption'
p4015
aS'History'
p4016
atp4017
Rp4018
sI218
g1
((lp4019
S'Helge'
p4020
aS'family'
p4021
aS'Henning Moritzen'
p4022
aS'truths'
p4023
aS'Thomas Bo Larsen'
p4024
aS'Drama'
p4025
aS'Ulrich Thomsen'
p4026
aS'birthday'
p4027
aS'party'
p4028
aS'Thomas Vinterberg'
p4029
atp4030
Rp4031
sI219
g1
((lp4032
S'Grigori Aleksandrov'
p4033
aS'account'
p4034
aS'police'
p4035
aS'naval'
p4036
aS'massacre'
p4037
aS'Sergei M. Eisenstein'
p4038
aS'Aleksandr Antonov'
p4039
aS'Drama'
p4040
aS'street'
p4041
aS'Vladimir Barsky'
p4042
aS'mutiny'
p4043
aS'demonstration'
p4044
aS'History'
p4045
atp4046
Rp4047
s.