(dp0
I0
S'Frank Darabont'
p1
sI1
S'Francis Ford Coppola'
p2
sI2
S'Francis Ford Coppola'
p3
sI3
S'Quentin Tarantino'
p4
sI4
S'Sergio Leone'
p5
sI5
S'Sidney Lumet'
p6
sI6
S'Christopher Nolan'
p7
sI7
S'Steven Spielberg'
p8
sI8
S'Peter Jackson'
p9
sI9
S'David Fincher'
p10
sI10
S'Irvin Kershner'
p11
sI11
S'Peter Jackson'
p12
sI12
S'Milos Forman'
p13
sI13
S'Christopher Nolan'
p14
sI14
S'Martin Scorsese'
p15
sI15
S'George Lucas'
p16
sI16
S'Robert Zemeckis'
p17
sI17
S'Andy Wachowski'
p18
sI18
S'Peter Jackson'
p19
sI19
S'Fernando Meirelles'
p20
sI20
S'David Fincher'
p21
sI21
S'Jonathan Demme'
p22
sI22
S'Sergio Leone'
p23
sI23
S'Michael Curtiz'
p24
sI24
S'Bryan Singer'
p25
sI25
S'Steven Spielberg'
p26
sI26
S'Alfred Hitchcock'
p27
sI27
S'Frank Capra'
p28
sI28
S'Alfred Hitchcock'
p29
sI29
S'Billy Wilder'
p30
sI30
S'Tony Kaye'
p31
sI31
S'Christopher Nolan'
p32
sI32
S'Francis Ford Coppola'
p33
sI33
S'James Cameron'
p34
sI34
S'Steven Spielberg'
p35
sI35
S'Stanley Kubrick'
p36
sI36
S'Charles Chaplin'
p37
sI37
S'Ridley Scott'
p38
sI38
S'Alfred Hitchcock'
p39
sI39
S'Hayao Miyazaki'
p40
sI40
S'Charles Chaplin'
p41
sI41
S'Quentin Tarantino'
p42
sI42
S'Orson Welles'
p43
sI43
S'Robert Zemeckis'
p44
sI44
S'Stanley Kubrick'
p45
sI45
S'Christopher Nolan'
p46
sI46
S'Roman Polanski'
p47
sI47
S'Roberto Benigni'
p48
sI48
S'Martin Scorsese'
p49
sI49
S'Fritz Lang'
p50
sI50
S'Alfred Hitchcock'
p51
sI51
S'Stanley Kubrick'
p52
sI52
S'Sam Mendes'
p53
sI53
S'Martin Scorsese'
p54
sI54
S'Billy Wilder'
p55
sI55
S'James Cameron'
p56
sI56
S'Lee Unkrich'
p57
sI57
S'Frank Darabont'
p58
sI58
S'Ridley Scott'
p59
sI59
S'Stanley Kubrick'
p60
sI60
S'Charles Chaplin'
p61
sI61
S'Christopher Nolan'
p62
sI62
S'David Lean'
p63
sI63
S'Robert Mulligan'
p64
sI64
S'Quentin Tarantino'
p65
sI65
S'Giuseppe Tornatore'
p66
sI66
S'Carol Reed'
p67
sI67
S'Darren Aronofsky'
p68
sI68
S'John Huston'
p69
sI69
S'Roger Allers'
p70
sI70
S'Michel Gondry'
p71
sI71
S'Sergio Leone'
p72
sI72
S'Richard Marquand'
p73
sI73
S'Stanley Kubrick'
p74
sI74
S'Curtis Hanson'
p75
sI75
S'Mel Gibson'
p76
sI76
S'Roman Polanski'
p77
sI77
S'Chan-wook Park'
p78
sI78
S'Stanley Donen'
p79
sI79
S'Terry Gilliam'
p80
sI80
S'Billy Wilder'
p81
sI81
S'Vittorio De Sica'
p82
sI82
S'Milos Forman'
p83
sI83
S'Stanley Kubrick'
p84
sI84
S'Joseph L. Mankiewicz'
p85
sI85
S'George Roy Hill'
p86
sI86
S'Clint Eastwood'
p87
sI87
S'Billy Wilder'
p88
sI88
S'Steven Spielberg'
p89
sI89
S'Martin Scorsese'
p90
sI90
S'David Lean'
p91
sI91
S'Billy Wilder'
p92
sI92
S'Isao Takahata'
p93
sI93
S'John McTiernan'
p94
sI94
S'Christopher Nolan'
p95
sI95
S'Asghar Farhadi'
p96
sI96
S'Guy Ritchie'
p97
sI97
S'Oliver Hirschbiegel'
p98
sI98
S'John Sturges'
p99
sI99
S'Frank Capra'
p100
sI100
S'Pete Docter'
p101
sI101
S'John Lasseter'
p102
sI102
S'Elia Kazan'
p103
sI103
S'David Lynch'
p104
sI104
S'Michael Mann'
p105
sI105
S'Clyde Bruckman'
p106
sI106
S'John Huston'
p107
sI107
S'Ridley Scott'
p108
sI108
S'Alfred Hitchcock'
p109
sI109
S'Charles Chaplin'
p110
sI110
S'Clint Eastwood'
p111
sI111
S'Brian De Palma'
p112
sI112
S'Joel Coen'
p113
sI113
S'Akira Kurosawa'
p114
sI114
S'Joel Coen'
p115
sI115
S'Orson Welles'
p116
sI116
S'Michael Cimino'
p117
sI117
S'Stuart Rosenberg'
p118
sI118
S'Charles Chaplin'
p119
sI119
S'Guy Ritchie'
p120
sI120
S'Ethan Coen'
p121
sI121
S'Frank Capra'
p122
sI122
S'Frank Miller'
p123
sI123
S'Alfred Hitchcock'
p124
sI124
S'Steven Spielberg'
p125
sI125
S'Martin Scorsese'
p126
sI126
S'M. Night Shyamalan'
p127
sI127
S'Oliver Stone'
p128
sI128
S'John Carpenter'
p129
sI129
S'Danny Boyle'
p130
sI130
S'George Roy Hill'
p131
sI131
S'Joss Whedon'
p132
sI132
S'Fred Zinnemann'
p133
sI133
S'Victor Fleming'
p134
sI134
S'Gus Van Sant'
p135
sI135
S'Terry George'
p136
sI136
S'Quentin Tarantino'
p137
sI137
S"Gavin O'Connor"
p138
sI138
S'Woody Allen'
p139
sI139
S'Victor Fleming'
p140
sI140
S'John Ford'
p141
sI141
S'Alfred Hitchcock'
p142
sI142
S'Hayao Miyazaki'
p143
sI143
S'Sean Penn'
p144
sI144
S'James McTeigue'
p145
sI145
S'Terry Jones'
p146
sI146
S'Andrew Stanton'
p147
sI147
S'Dean DeBlois'
p148
sI148
S'Alfred Hitchcock'
p149
sI149
S'Tom Hooper'
p150
sI150
S'Paul Thomas Anderson'
p151
sI151
S'Howard Hawks'
p152
sI152
S'Charles Laughton'
p153
sI153
S'Sidney Lumet'
p154
sI154
S'James Cameron'
p155
sI155
S'William Wyler'
p156
sI156
S'Clint Eastwood'
p157
sI157
S'Rob Reiner'
p158
sI158
S'William Wyler'
p159
sI159
S'Harold Ramis'
p160
sI160
S'Richard Kelly'
p161
sI161
S'Terry Gilliam'
p162
sI162
S'Sidney Lumet'
p163
sI163
S'Adam Elliot'
p164
sI164
S'Darren Aronofsky'
p165
sI165
S'Ingmar Bergman'
p166
sI166
S'Richard Attenborough'
p167
sI167
S'Stanley Kubrick'
p168
sI168
S'Mike Nichols'
p169
sI169
S'Ron Howard'
p170
sI170
S'Rob Reiner'
p171
sI171
S'Peter Jackson'
p172
sI172
S'Ang Lee'
p173
sI173
S'Robert Rossen'
p174
sI174
S'Mike Nichols'
p175
sI175
S'Danny Boyle'
p176
sI176
S'Federico Fellini'
p177
sI177
S'John G. Avildsen'
p178
sI178
S'Otto Preminger'
p179
sI179
S'John Frankenheimer'
p180
sI180
S'William Friedkin'
p181
sI181
S'Sam Peckinpah'
p182
sI182
S'John Ford'
p183
sI183
S'Alfred Hitchcock'
p184
sI184
S'Billy Wilder'
p185
sI185
S'Stanley Kubrick'
p186
sI186
S'Joseph L. Mankiewicz'
p187
sI187
S'Andrey Tarkovskiy'
p188
sI188
S'Jim Sheridan'
p189
sI189
S'Wai-keung Lau'
p190
sI190
S'William Wyler'
p191
sI191
S'Joon-ho Bong'
p192
sI192
S'Gore Verbinski'
p193
sI193
S'Peter Weir'
p194
sI194
S'Pete Docter'
p195
sI195
S'Neill Blomkamp'
p196
sI196
S'David Yates'
p197
sI197
S'Wilson Yip'
p198
sI198
S'Brad Bird'
p199
sI199
S'J.J. Abrams'
p200
sI200
S'Elia Kazan'
p201
sI201
S'Steven Spielberg'
p202
sI202
S'Lewis Milestone'
p203
sI203
S'Martin Scorsese'
p204
sI204
S'Gary Trousdale'
p205
sI205
S'Barry Levinson'
p206
sI206
S'Rajkumar Hirani'
p207
sI207
S'Roman Polanski'
p208
sI208
S'Henry Koster'
p209
sI209
S'Aamir Khan'
p210
sI210
S'Clint Eastwood'
p211
sI211
S'Franklin J. Schaffner'
p212
sI212
S'Woody Allen'
p213
sI213
S'Stephen Chbosky'
p214
sI214
S'Ki-duk Kim'
p215
sI215
S'Tate Taylor'
p216
sI216
S'Darren Aronofsky'
p217
sI217
S'Brian De Palma'
p218
sI218
S'Thomas Vinterberg'
p219
sI219
S'Sergei M. Eisenstein'
p220
s.