(dp0
I1
S"['Tim Robbins', 'Morgan Freeman', 'Bob Gunton']"
p1
sI2
S"['Marlon Brando', 'Al Pacino', 'James Caan']"
p2
sI3
S"['Al Pacino', 'Robert Duvall', 'Diane Keaton']"
p3
sI4
S"['John Travolta', 'Samuel L. Jackson', 'Bruce Willis']"
p4
sI5
S"['Eli Wallach', 'Clint Eastwood', 'Lee Van Cleef']"
p5
sI6
S"['Martin Balsam', 'John Fiedler', 'Lee J. Cobb']"
p6
sI7
S"['Christian Bale', 'Heath Ledger', 'Aaron Eckhart']"
p7
sI8
S"['Liam Neeson', 'Ben Kingsley', 'Ralph Fiennes']"
p8
sI9
S"['Orlando Bloom', 'Ian McKellen', 'Viggo Mortensen']"
p9
sI10
S"['Edward Norton', 'Brad Pitt', 'Helena Bonham Carter']"
p10
sI11
S"['Mark Hamill', 'Harrison Ford', 'Carrie Fisher']"
p11
sI12
S"['Elijah Wood', 'Sean Bean', 'Orlando Bloom']"
p12
sI13
S"['Michael Berryman', 'Peter Brocco', 'Louise Fletcher']"
p13
sI14
S"['Leonardo DiCaprio', 'Joseph Gordon-Levitt', 'Ellen Page']"
p14
sI15
S"['Robert De Niro', 'Ray Liotta', 'Joe Pesci']"
p15
sI16
S"['Mark Hamill', 'Harrison Ford', 'Carrie Fisher']"
p16
sI18
S"['Tom Hanks', 'Sally Field', 'Robin Wright']"
p17
sI19
S"['Keanu Reeves', 'Laurence Fishburne', 'Carrie-Anne Moss']"
p18
sI20
S"['Orlando Bloom', 'Ian McKellen', 'Viggo Mortensen']"
p19
sI21
S"['Alexandre Rodrigues', 'Leandro Firmino', 'Phellipe Haagensen']"
p20
sI22
S"['Brad Pitt', 'Morgan Freeman', 'Gwyneth Paltrow']"
p21
sI23
S"['Jodie Foster', 'Lawrence A. Bonney', 'Kasi Lemmons']"
p22
sI24
S"['Claudia Cardinale', 'Henry Fonda', 'Jason Robards']"
p23
sI25
S"['Humphrey Bogart', 'Ingrid Bergman', 'Paul Henreid']"
p24
sI26
S"['Stephen Baldwin', 'Gabriel Byrne', 'Kevin Spacey']"
p25
sI27
S"['Harrison Ford', 'Karen Allen', 'Paul Freeman']"
p26
sI28
S"['James Stewart', 'Grace Kelly', 'Wendell Corey']"
p27
sI29
S"['James Stewart', 'Donna Reed', 'Lionel Barrymore']"
p28
sI30
S"['Anthony Perkins', 'Vera Miles', 'John Gavin']"
p29
sI32
S"['William Holden', 'Gloria Swanson', 'Erich von Stroheim']"
p30
sI33
S'[\'Edward Norton\', \'Edward Furlong\', "Beverly D\'Angelo"]'
p31
sI34
S"['Guy Pearce', 'Carrie-Anne Moss', 'Joe Pantoliano']"
p32
sI35
S"['Marlon Brando', 'Martin Sheen', 'Robert Duvall']"
p33
sI36
S"['Arnold Schwarzenegger', 'Linda Hamilton', 'Edward Furlong']"
p34
sI37
S"['Tom Hanks', 'Tom Sizemore', 'Edward Burns']"
p35
sI38
S"['Peter Sellers', 'George C. Scott', 'Sterling Hayden']"
p36
sI39
S"['Virginia Cherrill', 'Florence Lee', 'Harry Myers']"
p37
sI40
S"['Tom Skerritt', 'Sigourney Weaver', 'Veronica Cartwright']"
p38
sI41
S"['Cary Grant', 'Eva Marie Saint', 'James Mason']"
p39
sI42
S"['Daveigh Chase', 'Suzanne Pleshette', 'Susan Egan']"
p40
sI43
S"['Charles Chaplin', 'Paulette Goddard', 'Henry Bergman']"
p41
sI44
S"['Jamie Foxx', 'Christoph Waltz', 'Leonardo DiCaprio']"
p42
sI45
S"['Joseph Cotten', 'Dorothy Comingore', 'Agnes Moorehead']"
p43
sI46
S"['Michael J. Fox', 'Christopher Lloyd', 'Lea Thompson']"
p44
sI47
S"['Jack Nicholson', 'Shelley Duvall', 'Danny Lloyd']"
p45
sI48
S"['Christian Bale', 'Gary Oldman', 'Tom Hardy']"
p46
sI49
S"['Adrien Brody', 'Emilia Fox', 'Frank Finlay']"
p47
sI50
S"['Roberto Benigni', 'Nicoletta Braschi', 'Giorgio Cantarini']"
p48
sI51
S"['Leonardo DiCaprio', 'Matt Damon', 'Jack Nicholson']"
p49
sI52
S"['Peter Lorre', 'Ellen Widmann', 'Inge Landgut']"
p50
sI53
S"['James Stewart', 'Kim Novak', 'Barbara Bel Geddes']"
p51
sI54
S"['Kirk Douglas', 'Ralph Meeker', 'Adolphe Menjou']"
p52
sI55
S"['Kevin Spacey', 'Annette Bening', 'Thora Birch']"
p53
sI56
S"['Albert Brooks', 'Robert De Niro', 'Jodie Foster']"
p54
sI57
S"['Fred MacMurray', 'Barbara Stanwyck', 'Edward G. Robinson']"
p55
sI58
S"['Sigourney Weaver', 'Carrie Henn', 'Michael Biehn']"
p56
sI59
S"['Tom Hanks', 'Tim Allen', 'Joan Cusack']"
p57
sI62
S"['Tom Hanks', 'David Morse', 'Michael Clarke Duncan']"
p58
sI63
S"['Russell Crowe', 'Joaquin Phoenix', 'Connie Nielsen']"
p59
sI65
S"['Malcolm McDowell', 'Patrick Magee', 'Michael Bates']"
p60
sI66
S"['Charles Chaplin', 'Jack Oakie', 'Reginald Gardiner']"
p61
sI68
S"['Hugh Jackman', 'Christian Bale', 'Michael Caine']"
p62
sI69
S'["Peter O\'Toole", \'Alec Guinness\', \'Anthony Quinn\']'
p63
sI70
S"['Gregory Peck', 'John Megna', 'Frank Overton']"
p64
sI71
S"['Harvey Keitel', 'Tim Roth', 'Michael Madsen']"
p65
sI73
S"['Antonella Attili', 'Enzo Cannavale', 'Isa Danieli']"
p66
sI74
S"['Joseph Cotten', 'Alida Valli', 'Orson Welles']"
p67
sI75
S"['Ellen Burstyn', 'Jared Leto', 'Jennifer Connelly']"
p68
sI76
S"['Humphrey Bogart', 'Walter Huston', 'Tim Holt']"
p69
sI77
S"['Matthew Broderick', 'James Earl Jones', 'Jeremy Irons']"
p70
sI78
S"['Jim Carrey', 'Kate Winslet', 'Gerry Robert Byrne']"
p71
sI79
S"['Robert De Niro', 'James Woods', 'Elizabeth McGovern']"
p72
sI80
S"['Mark Hamill', 'Harrison Ford', 'Carrie Fisher']"
p73
sI81
S'[\'Matthew Modine\', \'Adam Baldwin\', "Vincent D\'Onofrio"]'
p74
sI82
S"['Kevin Spacey', 'Russell Crowe', 'Guy Pearce']"
p75
sI83
S"['Patrick McGoohan', 'Sophie Marceau', 'Angus Macfadyen']"
p76
sI84
S"['Jack Nicholson', 'Faye Dunaway', 'John Huston']"
p77
sI85
S"['Min-sik Choi', 'Ji-tae Yu', 'Hye-jeong Kang']"
p78
sI86
S'[\'Gene Kelly\', "Donald O\'Connor", \'Debbie Reynolds\']'
p79
sI87
S"['Graham Chapman', 'John Cleese', 'Eric Idle']"
p80
sI88
S"['Marilyn Monroe', 'Tony Curtis', 'Jack Lemmon']"
p81
sI90
S"['Lamberto Maggiorani', 'Enzo Staiola', 'Lianella Carell']"
p82
sI91
S"['F. Murray Abraham', 'Tom Hulce', 'Elizabeth Berridge']"
p83
sI94
S"['Keir Dullea', 'Gary Lockwood', 'William Sylvester']"
p84
sI95
S"['Bette Davis', 'Anne Baxter', 'George Sanders']"
p85
sI96
S"['Paul Newman', 'Robert Redford', 'Robert Shaw']"
p86
sI97
S"['Clint Eastwood', 'Gene Hackman', 'Morgan Freeman']"
p87
sI98
S"['Jack Lemmon', 'Shirley MacLaine', 'Fred MacMurray']"
p88
sI99
S"['Harrison Ford', 'Sean Connery', 'Denholm Elliott']"
p89
sI100
S"['Robert De Niro', 'Cathy Moriarty', 'Joe Pesci']"
p90
sI101
S"['William Holden', 'Alec Guinness', 'Jack Hawkins']"
p91
sI102
S"['Tyrone Power', 'Marlene Dietrich', 'Charles Laughton']"
p92
sI103
S"['Tsutomu Tatsumi', 'Ayano Shiraishi', 'Yoshiko Shinohara']"
p93
sI104
S"['Bruce Willis', 'Bonnie Bedelia', 'Reginald VelJohnson']"
p94
sI105
S"['Christian Bale', 'Michael Caine', 'Liam Neeson']"
p95
sI106
S"['Payman Maadi', 'Leila Hatami', 'Sareh Bayat']"
p96
sI109
S"['Benicio Del Toro', 'Dennis Farina', 'Brad Pitt']"
p97
sI111
S"['Bruno Ganz', 'Alexandra Maria Lara', 'Ulrich Matthes']"
p98
sI113
S"['Steve McQueen', 'James Garner', 'Richard Attenborough']"
p99
sI114
S"['Jean Arthur', 'James Stewart', 'Claude Rains']"
p100
sI115
S"['Edward Asner', 'Christopher Plummer', 'Jordan Nagai']"
p101
sI116
S"['Tom Hanks', 'Tim Allen', 'Don Rickles']"
p102
sI117
S"['Marlon Brando', 'Karl Malden', 'Lee J. Cobb']"
p103
sI118
S"['Anthony Hopkins', 'John Hurt', 'Anne Bancroft']"
p104
sI120
S"['Al Pacino', 'Robert De Niro', 'Val Kilmer']"
p105
sI121
S"['Buster Keaton', 'Marion Mack', 'Glen Cavender']"
p106
sI122
S"['Humphrey Bogart', 'Mary Astor', 'Gladys George']"
p107
sI123
S"['Harrison Ford', 'Rutger Hauer', 'Sean Young']"
p108
sI124
S"['Laurence Olivier', 'Joan Fontaine', 'George Sanders']"
p109
sI125
S"['Carl Miller', 'Edna Purviance', 'Jackie Coogan']"
p110
sI126
S"['Clint Eastwood', 'Christopher Carley', 'Bee Vang']"
p111
sI128
S"['Al Pacino', 'Steven Bauer', 'Michelle Pfeiffer']"
p112
sI129
S"['William H. Macy', 'Steve Buscemi', 'Peter Stormare']"
p113
sI130
S"['Tatsuya Nakadai', 'Akira Terao', 'Jinpachi Nezu']"
p114
sI131
S"['Jeff Bridges', 'John Goodman', 'Julianne Moore']"
p115
sI132
S"['Charlton Heston', 'Janet Leigh', 'Orson Welles']"
p116
sI133
S"['Robert De Niro', 'John Cazale', 'John Savage']"
p117
sI134
S"['Paul Newman', 'George Kennedy', 'J.D. Cannon']"
p118
sI135
S"['Charles Chaplin', 'Mack Swain', 'Tom Murray']"
p119
sI136
S"['Jason Flemyng', 'Dexter Fletcher', 'Nick Moran']"
p120
sI137
S"['Tommy Lee Jones', 'Javier Bardem', 'Josh Brolin']"
p121
sI138
S"['Clark Gable', 'Claudette Colbert', 'Walter Connolly']"
p122
sI139
S"['Jessica Alba', 'Clive Owen', 'Mickey Rourke']"
p123
sI140
S"['Farley Granger', 'Ruth Roman', 'Robert Walker']"
p124
sI141
S"['Roy Scheider', 'Robert Shaw', 'Richard Dreyfuss']"
p125
sI142
S"['Robert De Niro', 'Sharon Stone', 'Joe Pesci']"
p126
sI143
S"['Bruce Willis', 'Haley Joel Osment', 'Toni Collette']"
p127
sI144
S"['Keith David', 'Tom Berenger', 'Willem Dafoe']"
p128
sI145
S"['Kurt Russell', 'Wilford Brimley', 'Keith David']"
p129
sI146
S"['Ewan McGregor', 'Ewen Bremner', 'Jonny Lee Miller']"
p130
sI147
S"['Paul Newman', 'Robert Redford', 'Katharine Ross']"
p131
sI148
S"['Robert Downey Jr.', 'Chris Evans', 'Scarlett Johansson']"
p132
sI149
S"['Gary Cooper', 'Thomas Mitchell', 'Lloyd Bridges']"
p133
sI150
S"['Judy Garland', 'Frank Morgan', 'Ray Bolger']"
p134
sI151
S"['Matt Damon', 'Robin Williams', 'Ben Affleck']"
p135
sI152
S"['Xolani Mali', 'Don Cheadle', 'Sophie Okonedo']"
p136
sI153
S"['Uma Thurman', 'Daryl Hannah', 'David Carradine']"
p137
sI154
S"['Joel Edgerton', 'Tom Hardy', 'Nick Nolte']"
p138
sI156
S"['Woody Allen', 'Diane Keaton', 'Tony Roberts']"
p139
sI157
S'[\'Thomas Mitchell\', "Barbara O\'Neil", \'Vivien Leigh\']'
p140
sI158
S"['Henry Fonda', 'Jane Darwell', 'John Carradine']"
p141
sI159
S"['Toshiyuki Amagasa', 'Paul Butcher', 'Noriko Hidaka']"
p142
sI160
S"['Cary Grant', 'Ingrid Bergman', 'Claude Rains']"
p143
sI161
S"['Natalie Portman', 'Hugo Weaving', 'Stephen Rea']"
p144
sI162
S"['Emile Hirsch', 'Marcia Gay Harden', 'Catherine Keener']"
p145
sI163
S"['Graham Chapman', 'John Cleese', 'Terry Gilliam']"
p146
sI164
S"['Albert Brooks', 'Ellen DeGeneres', 'Alexander Gould']"
p147
sI165
S"['Jay Baruchel', 'Gerard Butler', 'Craig Ferguson']"
p148
sI166
S"['Ray Milland', 'Grace Kelly', 'Robert Cummings']"
p149
sI167
S"['Colin Firth', 'Helena Bonham Carter', 'Derek Jacobi']"
p150
sI168
S"['Daniel Day-Lewis', 'Martin Stringer', 'Paul Dano']"
p151
sI169
S"['Humphrey Bogart', 'Lauren Bacall', 'John Ridgely']"
p152
sI170
S"['Robert Mitchum', 'Shelley Winters', 'Lillian Gish']"
p153
sI171
S"['Faye Dunaway', 'William Holden', 'Peter Finch']"
p154
sI172
S"['Arnold Schwarzenegger', 'Michael Biehn', 'Linda Hamilton']"
p155
sI173
S"['Charlton Heston', 'Jack Hawkins', 'Haya Harareet']"
p156
sI174
S"['Clint Eastwood', 'Hilary Swank', 'Morgan Freeman']"
p157
sI175
S"['Wil Wheaton', 'River Phoenix', 'Corey Feldman']"
p158
sI176
S"['Myrna Loy', 'Fredric March', 'Dana Andrews']"
p159
sI177
S"['Bill Murray', 'Andie MacDowell', 'Chris Elliott']"
p160
sI178
S"['Jake Gyllenhaal', 'Holmes Osborne', 'Mary McDonnell']"
p161
sI179
S"['Joseph Melito', 'Bruce Willis', 'Madeleine Stowe']"
p162
sI180
S"['Penelope Allen', 'Sully Boyar', 'John Cazale']"
p163
sI181
S"['Toni Collette', 'Philip Seymour Hoffman', 'Barry Humphries']"
p164
sI184
S"['Natalie Portman', 'Mila Kunis', 'Vincent Cassel']"
p165
sI186
S"['Bibi Andersson', 'Liv Ullmann', 'Margaretha Krook']"
p166
sI187
S"['Ben Kingsley', 'Candice Bergen', 'Edward Fox']"
p167
sI189
S"['Sterling Hayden', 'Coleen Gray', 'Vince Edwards']"
p168
sI190
S"['Anne Bancroft', 'Dustin Hoffman', 'Katharine Ross']"
p169
sI191
S"['Russell Crowe', 'Ed Harris', 'Jennifer Connelly']"
p170
sI192
S"['Ian McKellen', 'Martin Freeman', 'Richard Armitage']"
p171
sI193
S"['Cary Elwes', 'Mandy Patinkin', 'Chris Sarandon']"
p172
sI194
S"['Suraj Sharma', 'Irrfan Khan', 'Adil Hussain']"
p173
sI196
S"['Paul Newman', 'Jackie Gleason', 'Piper Laurie']"
p174
sI197
S"['Elizabeth Taylor', 'Richard Burton', 'George Segal']"
p175
sI198
S"['Dev Patel', 'Saurabh Shukla', 'Anil Kapoor']"
p176
sI199
S"['Anthony Quinn', 'Giulietta Masina', 'Richard Basehart']"
p177
sI200
S"['Sylvester Stallone', 'Talia Shire', 'Burt Young']"
p178
sI201
S"['James Stewart', 'Lee Remick', 'Ben Gazzara']"
p179
sI202
S"['Frank Sinatra', 'Laurence Harvey', 'Janet Leigh']"
p180
sI203
S"['Ellen Burstyn', 'Max von Sydow', 'Lee J. Cobb']"
p181
sI204
S"['William Holden', 'Ernest Borgnine', 'Robert Ryan']"
p182
sI205
S"['John Wayne', 'James Stewart', 'Vera Miles']"
p183
sI206
S"['Dick Hogan', 'John Dall', 'Farley Granger']"
p184
sI207
S"['William Holden', 'Don Taylor', 'Otto Preminger']"
p185
sI208
S'["Ryan O\'Neal", \'Marisa Berenson\', \'Patrick Magee\']'
p186
sI210
S"['Laurence Olivier', 'Michael Caine', 'Alec Cawthorne']"
p187
sI211
S"['Alisa Freyndlikh', 'Aleksandr Kaydanovskiy', 'Anatoliy Solonitsyn']"
p188
sI212
S"['Alison Crosbie', 'Daniel Day-Lewis', 'Philip King']"
p189
sI213
S"['Andy Lau', 'Tony Leung Chiu Wai', 'Anthony Wong Chau-Sang']"
p190
sI214
S"['Gregory Peck', 'Audrey Hepburn', 'Eddie Albert']"
p191
sI215
S"['Johnny Depp', 'Geoffrey Rush', 'Orlando Bloom']"
p192
sI216
S"['Jim Carrey', 'Laura Linney', 'Noah Emmerich']"
p193
sI217
S"['Kang-ho Song', 'Sang-kyung Kim', 'Roe-ha Kim']"
p194
sI218
S"['John Goodman', 'Billy Crystal', 'Mary Gibbs']"
p195
sI219
S"['Sharlto Copley', 'Jason Cope', 'Nathalie Boltt']"
p196
sI221
S"['Michael Gambon', 'Daniel Radcliffe', 'Rupert Grint']"
p197
sI222
S"['Donnie Yen', 'Simon Yam', 'Ka Tung Lam']"
p198
sI224
S"['Patton Oswalt', 'Ian Holm', 'Lou Romano']"
p199
sI225
S"['Chris Pine', 'Zachary Quinto', 'Leonard Nimoy']"
p200
sI226
S"['Vivien Leigh', 'Marlon Brando', 'Kim Hunter']"
p201
sI228
S"['Sam Neill', 'Laura Dern', 'Jeff Goldblum']"
p202
sI229
S"['Louis Wolheim', 'Lew Ayres', 'John Wray']"
p203
sI230
S"['Leonardo DiCaprio', 'Mark Ruffalo', 'Ben Kingsley']"
p204
sI231
S'["Paige O\'Hara", \'Robby Benson\', \'Richard White\']'
p205
sI232
S"['Dustin Hoffman', 'Tom Cruise', 'Valeria Golino']"
p206
sI234
S"['Aamir Khan', 'Kareena Kapoor', 'Madhavan']"
p207
sI235
S"['Mia Farrow', 'John Cassavetes', 'Ruth Gordon']"
p208
sI237
S"['James Stewart', 'Josephine Hull', 'Peggy Dow']"
p209
sI238
S"['Darsheel Safary', 'Aamir Khan', 'Tanay Chheda']"
p210
sI239
S"['Sean Penn', 'Tim Robbins', 'Kevin Bacon']"
p211
sI240
S"['Steve McQueen', 'Dustin Hoffman', 'Victor Jory']"
p212
sI241
S"['Woody Allen', 'Diane Keaton', 'Michael Murphy']"
p213
sI242
S"['Logan Lerman', 'Ezra Miller', 'Paul Rudd']"
p214
sI244
S"['Yeong-su Oh', 'Ki-duk Kim', 'Young-min Kim']"
p215
sI245
S"['Emma Stone', 'Viola Davis', 'Bryce Dallas Howard']"
p216
sI247
S"['Mickey Rourke', 'Marisa Tomei', 'Evan Rachel Wood']"
p217
sI248
S"['Kevin Costner', 'Sean Connery', 'Charles Martin Smith']"
p218
sI249
S"['Ulrich Thomsen', 'Henning Moritzen', 'Thomas Bo Larsen']"
p219
sI250
S"['Maggie Cheung', 'Tony Leung Chiu Wai', 'Ping Lam Siu']"
p220
s.