(dp0
I1
S'Frank Darabont'
p1
sI2
S'Francis Ford Coppola'
p2
sI3
S'Francis Ford Coppola'
p3
sI4
S'Quentin Tarantino'
p4
sI5
S'Sergio Leone'
p5
sI6
S'Sidney Lumet'
p6
sI7
S'Christopher Nolan'
p7
sI8
S'Steven Spielberg'
p8
sI9
S'Peter Jackson'
p9
sI10
S'David Fincher'
p10
sI11
S'Irvin Kershner'
p11
sI12
S'Peter Jackson'
p12
sI13
S'Milos Forman'
p13
sI14
S'Christopher Nolan'
p14
sI15
S'Martin Scorsese'
p15
sI16
S'George Lucas'
p16
sI18
S'Robert Zemeckis'
p17
sI19
S'Andy Wachowski'
p18
sI20
S'Peter Jackson'
p19
sI21
S'Fernando Meirelles'
p20
sI22
S'David Fincher'
p21
sI23
S'Jonathan Demme'
p22
sI24
S'Sergio Leone'
p23
sI25
S'Michael Curtiz'
p24
sI26
S'Bryan Singer'
p25
sI27
S'Steven Spielberg'
p26
sI28
S'Alfred Hitchcock'
p27
sI29
S'Frank Capra'
p28
sI30
S'Alfred Hitchcock'
p29
sI32
S'Billy Wilder'
p30
sI33
S'Tony Kaye'
p31
sI34
S'Christopher Nolan'
p32
sI35
S'Francis Ford Coppola'
p33
sI36
S'James Cameron'
p34
sI37
S'Steven Spielberg'
p35
sI38
S'Stanley Kubrick'
p36
sI39
S'Charles Chaplin'
p37
sI40
S'Ridley Scott'
p38
sI41
S'Alfred Hitchcock'
p39
sI42
S'Hayao Miyazaki'
p40
sI43
S'Charles Chaplin'
p41
sI44
S'Quentin Tarantino'
p42
sI45
S'Orson Welles'
p43
sI46
S'Robert Zemeckis'
p44
sI47
S'Stanley Kubrick'
p45
sI48
S'Christopher Nolan'
p46
sI49
S'Roman Polanski'
p47
sI50
S'Roberto Benigni'
p48
sI51
S'Martin Scorsese'
p49
sI52
S'Fritz Lang'
p50
sI53
S'Alfred Hitchcock'
p51
sI54
S'Stanley Kubrick'
p52
sI55
S'Sam Mendes'
p53
sI56
S'Martin Scorsese'
p54
sI57
S'Billy Wilder'
p55
sI58
S'James Cameron'
p56
sI59
S'Lee Unkrich'
p57
sI62
S'Frank Darabont'
p58
sI63
S'Ridley Scott'
p59
sI65
S'Stanley Kubrick'
p60
sI66
S'Charles Chaplin'
p61
sI68
S'Christopher Nolan'
p62
sI69
S'David Lean'
p63
sI70
S'Robert Mulligan'
p64
sI71
S'Quentin Tarantino'
p65
sI73
S'Giuseppe Tornatore'
p66
sI74
S'Carol Reed'
p67
sI75
S'Darren Aronofsky'
p68
sI76
S'John Huston'
p69
sI77
S'Roger Allers'
p70
sI78
S'Michel Gondry'
p71
sI79
S'Sergio Leone'
p72
sI80
S'Richard Marquand'
p73
sI81
S'Stanley Kubrick'
p74
sI82
S'Curtis Hanson'
p75
sI83
S'Mel Gibson'
p76
sI84
S'Roman Polanski'
p77
sI85
S'Chan-wook Park'
p78
sI86
S'Stanley Donen'
p79
sI87
S'Terry Gilliam'
p80
sI88
S'Billy Wilder'
p81
sI90
S'Vittorio De Sica'
p82
sI91
S'Milos Forman'
p83
sI94
S'Stanley Kubrick'
p84
sI95
S'Joseph L. Mankiewicz'
p85
sI96
S'George Roy Hill'
p86
sI97
S'Clint Eastwood'
p87
sI98
S'Billy Wilder'
p88
sI99
S'Steven Spielberg'
p89
sI100
S'Martin Scorsese'
p90
sI101
S'David Lean'
p91
sI102
S'Billy Wilder'
p92
sI103
S'Isao Takahata'
p93
sI104
S'John McTiernan'
p94
sI105
S'Christopher Nolan'
p95
sI106
S'Asghar Farhadi'
p96
sI109
S'Guy Ritchie'
p97
sI111
S'Oliver Hirschbiegel'
p98
sI113
S'John Sturges'
p99
sI114
S'Frank Capra'
p100
sI115
S'Pete Docter'
p101
sI116
S'John Lasseter'
p102
sI117
S'Elia Kazan'
p103
sI118
S'David Lynch'
p104
sI120
S'Michael Mann'
p105
sI121
S'Clyde Bruckman'
p106
sI122
S'John Huston'
p107
sI123
S'Ridley Scott'
p108
sI124
S'Alfred Hitchcock'
p109
sI125
S'Charles Chaplin'
p110
sI126
S'Clint Eastwood'
p111
sI128
S'Brian De Palma'
p112
sI129
S'Joel Coen'
p113
sI130
S'Akira Kurosawa'
p114
sI131
S'Joel Coen'
p115
sI132
S'Orson Welles'
p116
sI133
S'Michael Cimino'
p117
sI134
S'Stuart Rosenberg'
p118
sI135
S'Charles Chaplin'
p119
sI136
S'Guy Ritchie'
p120
sI137
S'Ethan Coen'
p121
sI138
S'Frank Capra'
p122
sI139
S'Frank Miller'
p123
sI140
S'Alfred Hitchcock'
p124
sI141
S'Steven Spielberg'
p125
sI142
S'Martin Scorsese'
p126
sI143
S'M. Night Shyamalan'
p127
sI144
S'Oliver Stone'
p128
sI145
S'John Carpenter'
p129
sI146
S'Danny Boyle'
p130
sI147
S'George Roy Hill'
p131
sI148
S'Joss Whedon'
p132
sI149
S'Fred Zinnemann'
p133
sI150
S'Victor Fleming'
p134
sI151
S'Gus Van Sant'
p135
sI152
S'Terry George'
p136
sI153
S'Quentin Tarantino'
p137
sI154
S"Gavin O'Connor"
p138
sI156
S'Woody Allen'
p139
sI157
S'Victor Fleming'
p140
sI158
S'John Ford'
p141
sI159
S'Hayao Miyazaki'
p142
sI160
S'Alfred Hitchcock'
p143
sI161
S'James McTeigue'
p144
sI162
S'Sean Penn'
p145
sI163
S'Terry Jones'
p146
sI164
S'Andrew Stanton'
p147
sI165
S'Dean DeBlois'
p148
sI166
S'Alfred Hitchcock'
p149
sI167
S'Tom Hooper'
p150
sI168
S'Paul Thomas Anderson'
p151
sI169
S'Howard Hawks'
p152
sI170
S'Charles Laughton'
p153
sI171
S'Sidney Lumet'
p154
sI172
S'James Cameron'
p155
sI173
S'William Wyler'
p156
sI174
S'Clint Eastwood'
p157
sI175
S'Rob Reiner'
p158
sI176
S'William Wyler'
p159
sI177
S'Harold Ramis'
p160
sI178
S'Richard Kelly'
p161
sI179
S'Terry Gilliam'
p162
sI180
S'Sidney Lumet'
p163
sI181
S'Adam Elliot'
p164
sI184
S'Darren Aronofsky'
p165
sI186
S'Ingmar Bergman'
p166
sI187
S'Richard Attenborough'
p167
sI189
S'Stanley Kubrick'
p168
sI190
S'Mike Nichols'
p169
sI191
S'Ron Howard'
p170
sI192
S'Peter Jackson'
p171
sI193
S'Rob Reiner'
p172
sI194
S'Ang Lee'
p173
sI196
S'Robert Rossen'
p174
sI197
S'Mike Nichols'
p175
sI198
S'Danny Boyle'
p176
sI199
S'Federico Fellini'
p177
sI200
S'John G. Avildsen'
p178
sI201
S'Otto Preminger'
p179
sI202
S'John Frankenheimer'
p180
sI203
S'William Friedkin'
p181
sI204
S'Sam Peckinpah'
p182
sI205
S'John Ford'
p183
sI206
S'Alfred Hitchcock'
p184
sI207
S'Billy Wilder'
p185
sI208
S'Stanley Kubrick'
p186
sI210
S'Joseph L. Mankiewicz'
p187
sI211
S'Andrey Tarkovskiy'
p188
sI212
S'Jim Sheridan'
p189
sI213
S'Wai-keung Lau'
p190
sI214
S'William Wyler'
p191
sI215
S'Gore Verbinski'
p192
sI216
S'Peter Weir'
p193
sI217
S'Joon-ho Bong'
p194
sI218
S'Pete Docter'
p195
sI219
S'Neill Blomkamp'
p196
sI221
S'David Yates'
p197
sI222
S'Wilson Yip'
p198
sI224
S'Brad Bird'
p199
sI225
S'J.J. Abrams'
p200
sI226
S'Elia Kazan'
p201
sI228
S'Steven Spielberg'
p202
sI229
S'Lewis Milestone'
p203
sI230
S'Martin Scorsese'
p204
sI231
S'Gary Trousdale'
p205
sI232
S'Barry Levinson'
p206
sI234
S'Rajkumar Hirani'
p207
sI235
S'Roman Polanski'
p208
sI237
S'Henry Koster'
p209
sI238
S'Aamir Khan'
p210
sI239
S'Clint Eastwood'
p211
sI240
S'Franklin J. Schaffner'
p212
sI241
S'Woody Allen'
p213
sI242
S'Stephen Chbosky'
p214
sI244
S'Ki-duk Kim'
p215
sI245
S'Tate Taylor'
p216
sI247
S'Darren Aronofsky'
p217
sI248
S'Brian De Palma'
p218
sI249
S'Thomas Vinterberg'
p219
sI250
S'Kar Wai Wong'
p220
s.