(dp0
I1
S'The Shawshank Redemption'
p1
sI2
S'The Godfather'
p2
sI3
S'The Godfather: Part II'
p3
sI4
S'Pulp Fiction'
p4
sI5
S'The Good, the Bad and the Ugly'
p5
sI6
S'12 Angry Men'
p6
sI7
S'The Dark Knight'
p7
sI8
S"Schindler's List"
p8
sI9
S'The Lord of the Rings: The Return of the King'
p9
sI10
S'Fight Club'
p10
sI11
S'Star Wars: Episode V - The Empire Strikes Back'
p11
sI12
S'The Lord of the Rings: The Fellowship of the Ring'
p12
sI13
S"One Flew Over the Cuckoo's Nest"
p13
sI14
S'Inception'
p14
sI15
S'Goodfellas'
p15
sI16
S'Star Wars'
p16
sI18
S'Forrest Gump'
p17
sI19
S'The Matrix'
p18
sI20
S'The Lord of the Rings: The Two Towers'
p19
sI21
S'City of God'
p20
sI22
S'Se7en'
p21
sI23
S'The Silence of the Lambs'
p22
sI24
S'Once Upon a Time in the West'
p23
sI25
S'Casablanca'
p24
sI26
S'The Usual Suspects'
p25
sI27
S'Raiders of the Lost Ark'
p26
sI28
S'Rear Window'
p27
sI29
S"It's a Wonderful Life"
p28
sI30
S'Psycho'
p29
sI32
S'Sunset Blvd.'
p30
sI33
S'American History X'
p31
sI34
S'Memento'
p32
sI35
S'Apocalypse Now'
p33
sI36
S'Terminator 2: Judgment Day'
p34
sI37
S'Saving Private Ryan'
p35
sI38
S'Dr. Strangelove or: How I Learned to Stop Worrying and Love the Bomb'
p36
sI39
S'City Lights'
p37
sI40
S'Alien'
p38
sI41
S'North by Northwest'
p39
sI42
S'Spirited Away'
p40
sI43
S'Modern Times'
p41
sI44
S'Django Unchained'
p42
sI45
S'Citizen Kane'
p43
sI46
S'Back to the Future'
p44
sI47
S'The Shining'
p45
sI48
S'The Dark Knight Rises'
p46
sI49
S'The Pianist'
p47
sI50
S'Life Is Beautiful'
p48
sI51
S'The Departed'
p49
sI52
S'M'
p50
sI53
S'Vertigo'
p51
sI54
S'Paths of Glory'
p52
sI55
S'American Beauty'
p53
sI56
S'Taxi Driver'
p54
sI57
S'Double Indemnity'
p55
sI58
S'Aliens'
p56
sI59
S'Toy Story 3'
p57
sI62
S'The Green Mile'
p58
sI63
S'Gladiator'
p59
sI65
S'A Clockwork Orange'
p60
sI66
S'The Great Dictator'
p61
sI68
S'The Prestige'
p62
sI69
S'Lawrence of Arabia'
p63
sI70
S'To Kill a Mockingbird'
p64
sI71
S'Reservoir Dogs'
p65
sI73
S'Cinema Paradiso'
p66
sI74
S'The Third Man'
p67
sI75
S'Requiem for a Dream'
p68
sI76
S'The Treasure of the Sierra Madre'
p69
sI77
S'The Lion King'
p70
sI78
S'Eternal Sunshine of the Spotless Mind'
p71
sI79
S'Once Upon a Time in America'
p72
sI80
S'Star Wars: Episode VI - Return of the Jedi'
p73
sI81
S'Full Metal Jacket'
p74
sI82
S'L.A. Confidential'
p75
sI83
S'Braveheart'
p76
sI84
S'Chinatown'
p77
sI85
S'Oldboy'
p78
sI86
S"Singin' in the Rain"
p79
sI87
S'Monty Python and the Holy Grail'
p80
sI88
S'Some Like It Hot'
p81
sI90
S'Bicycle Thieves'
p82
sI91
S'Amadeus'
p83
sI94
S'2001: A Space Odyssey'
p84
sI95
S'All About Eve'
p85
sI96
S'The Sting'
p86
sI97
S'Unforgiven'
p87
sI98
S'The Apartment'
p88
sI99
S'Indiana Jones and the Last Crusade'
p89
sI100
S'Raging Bull'
p90
sI101
S'The Bridge on the River Kwai'
p91
sI102
S'Witness for the Prosecution'
p92
sI103
S'Grave of the Fireflies'
p93
sI104
S'Die Hard'
p94
sI105
S'Batman Begins'
p95
sI106
S'A Separation'
p96
sI109
S'Snatch.'
p97
sI111
S'Downfall'
p98
sI113
S'The Great Escape'
p99
sI114
S'Mr. Smith Goes to Washington'
p100
sI115
S'Up'
p101
sI116
S'Toy Story'
p102
sI117
S'On the Waterfront'
p103
sI118
S'The Elephant Man'
p104
sI120
S'Heat'
p105
sI121
S'The General'
p106
sI122
S'The Maltese Falcon'
p107
sI123
S'Blade Runner'
p108
sI124
S'Rebecca'
p109
sI125
S'The Kid'
p110
sI126
S'Gran Torino'
p111
sI128
S'Scarface'
p112
sI129
S'Fargo'
p113
sI130
S'Ran'
p114
sI131
S'The Big Lebowski'
p115
sI132
S'Touch of Evil'
p116
sI133
S'The Deer Hunter'
p117
sI134
S'Cool Hand Luke'
p118
sI135
S'The Gold Rush'
p119
sI136
S'Lock, Stock and Two Smoking Barrels'
p120
sI137
S'No Country for Old Men'
p121
sI138
S'It Happened One Night'
p122
sI139
S'Sin City'
p123
sI140
S'Strangers on a Train'
p124
sI141
S'Jaws'
p125
sI142
S'Casino'
p126
sI143
S'The Sixth Sense'
p127
sI144
S'Platoon'
p128
sI145
S'The Thing'
p129
sI146
S'Trainspotting'
p130
sI147
S'Butch Cassidy and the Sundance Kid'
p131
sI148
S'The Avengers'
p132
sI149
S'High Noon'
p133
sI150
S'The Wizard of Oz'
p134
sI151
S'Good Will Hunting'
p135
sI152
S'Hotel Rwanda'
p136
sI153
S'Kill Bill: Vol. 1'
p137
sI154
S'Warrior'
p138
sI156
S'Annie Hall'
p139
sI157
S'Gone with the Wind'
p140
sI158
S'The Grapes of Wrath'
p141
sI159
S'My Neighbor Totoro'
p142
sI160
S'Notorious'
p143
sI161
S'V for Vendetta'
p144
sI162
S'Into the Wild'
p145
sI163
S'Life of Brian'
p146
sI164
S'Finding Nemo'
p147
sI165
S'How to Train Your Dragon'
p148
sI166
S'Dial M for Murder'
p149
sI167
S"The King's Speech"
p150
sI168
S'There Will Be Blood'
p151
sI169
S'The Big Sleep'
p152
sI170
S'The Night of the Hunter'
p153
sI171
S'Network'
p154
sI172
S'The Terminator'
p155
sI173
S'Ben-Hur'
p156
sI174
S'Million Dollar Baby'
p157
sI175
S'Stand by Me'
p158
sI176
S'The Best Years of Our Lives'
p159
sI177
S'Groundhog Day'
p160
sI178
S'Donnie Darko'
p161
sI179
S'Twelve Monkeys'
p162
sI180
S'Dog Day Afternoon'
p163
sI181
S'Mary and Max'
p164
sI184
S'Black Swan'
p165
sI186
S'Persona'
p166
sI187
S'Gandhi'
p167
sI189
S'The Killing'
p168
sI190
S'The Graduate'
p169
sI191
S'A Beautiful Mind'
p170
sI192
S'The Hobbit: An Unexpected Journey'
p171
sI193
S'The Princess Bride'
p172
sI194
S'Life of Pi'
p173
sI196
S'The Hustler'
p174
sI197
S"Who's Afraid of Virginia Woolf?"
p175
sI198
S'Slumdog Millionaire'
p176
sI199
S'La Strada'
p177
sI200
S'Rocky'
p178
sI201
S'Anatomy of a Murder'
p179
sI202
S'The Manchurian Candidate'
p180
sI203
S'The Exorcist'
p181
sI204
S'The Wild Bunch'
p182
sI205
S'The Man Who Shot Liberty Valance'
p183
sI206
S'Rope'
p184
sI207
S'Stalag 17'
p185
sI208
S'Barry Lyndon'
p186
sI210
S'Sleuth'
p187
sI211
S'Stalker'
p188
sI212
S'In the Name of the Father'
p189
sI213
S'Infernal Affairs'
p190
sI214
S'Roman Holiday'
p191
sI215
S'Pirates of the Caribbean: The Curse of the Black Pearl'
p192
sI216
S'The Truman Show'
p193
sI217
S'Memories of Murder'
p194
sI218
S'Monsters, Inc.'
p195
sI219
S'District 9'
p196
sI221
S'Harry Potter and the Deathly Hallows: Part 2'
p197
sI222
S'Ip Man'
p198
sI224
S'Ratatouille'
p199
sI225
S'Star Trek'
p200
sI226
S'A Streetcar Named Desire'
p201
sI228
S'Jurassic Park'
p202
sI229
S'All Quiet on the Western Front'
p203
sI230
S'Shutter Island'
p204
sI231
S'Beauty and the Beast'
p205
sI232
S'Rain Man'
p206
sI234
S'3 Idiots'
p207
sI235
S"Rosemary's Baby"
p208
sI237
S'Harvey'
p209
sI238
S'Like Stars on Earth'
p210
sI239
S'Mystic River'
p211
sI240
S'Papillon'
p212
sI241
S'Manhattan'
p213
sI242
S'The Perks of Being a Wallflower'
p214
sI244
S'Spring, Summer, Fall, Winter... and Spring'
p215
sI245
S'The Help'
p216
sI247
S'The Wrestler'
p217
sI248
S'The Untouchables'
p218
sI249
S'The Celebration'
p219
sI250
S'In the Mood for Love'
p220
s.